Archive member included to satisfy reference by file (symbol)

.\libkernel.a(core_support.o)
                              startup_RZ1AH.o (_kernel_undef_handler)
.\libkernel.a(target_kernel_impl.o)
                              us_ticker_api.o (us_ticker_init)
.\libkernel.a(chip_kernel_impl.o)
                              .\libkernel.a(target_kernel_impl.o) (_kernel_chip_terminate)
.\libkernel.a(gic_kernel_impl.o)
                              .\libkernel.a(chip_kernel_impl.o) (_kernel_gicc_initialize)
.\libkernel.a(chip_timer.o)   kernel_cfg.o (_kernel_target_hrt_initialize)
.\libkernel.a(core_kernel_impl.o)
                              .\libkernel.a(chip_kernel_impl.o) (_kernel_core_initialize)
.\libkernel.a(arm.o)          .\libkernel.a(chip_kernel_impl.o) (arm_enable_icache)
.\libkernel.a(startup.o)      sample1.o (ext_ker)
.\libkernel.a(task.o)         .\libkernel.a(core_support.o) (_kernel_p_schedtsk)
.\libkernel.a(taskhook.o)     .\libkernel.a(task.o) (_kernel_mtxhook_release_all)
.\libkernel.a(time_event.o)   .\libkernel.a(startup.o) (_kernel_initialize_tmevt)
.\libkernel.a(task_manage.o)  sample1.o (acre_tsk)
.\libkernel.a(task_sync.o)    sample1.o (slp_tsk)
.\libkernel.a(task_term.o)    sample1.o (ext_tsk)
.\libkernel.a(semaphore.o)    kernel_cfg.o (_kernel_initialize_semaphore)
.\libkernel.a(eventflag.o)    kernel_cfg.o (_kernel_initialize_eventflag)
.\libkernel.a(dataqueue.o)    kernel_cfg.o (_kernel_initialize_dataqueue)
.\libkernel.a(mempfix.o)      kernel_cfg.o (_kernel_initialize_mempfix)
.\libkernel.a(time_manage.o)  sample1.o (get_tim)
.\libkernel.a(cyclic.o)       kernel_cfg.o (_kernel_initialize_cyclic)
.\libkernel.a(alarm.o)        kernel_cfg.o (_kernel_initialize_alarm)
.\libkernel.a(sys_manage.o)   sample1.o (rot_rdq)
.\libkernel.a(interrupt.o)    kernel_cfg.o (_kernel_initialize_isr)
.\libkernel.a(exception.o)    sample1.o (xsns_dpn)
.\libkernel.a(gic_support.o)  .\libkernel.a(core_support.o) (_kernel_irc_begin_int)
.\libkernel.a(wait.o)         .\libkernel.a(task_sync.o) (_kernel_make_wait_tmout)
c:/program files (x86)/kpit/gnuarm-nonev16.01-eabi/arm-none-eabi/arm-none-eabi/bin/../lib/gcc/arm-none-eabi/5.2-GNUARM-NONE_v16.01/../../../../arm-none-eabi/lib/armv7-ar/thumb/fpu\libc.a(lib_a-exit.o)
                              error.o (exit)
c:/program files (x86)/kpit/gnuarm-nonev16.01-eabi/arm-none-eabi/arm-none-eabi/bin/../lib/gcc/arm-none-eabi/5.2-GNUARM-NONE_v16.01/../../../../arm-none-eabi/lib/armv7-ar/thumb/fpu\libc.a(lib_a-impure.o)
                              c:/program files (x86)/kpit/gnuarm-nonev16.01-eabi/arm-none-eabi/arm-none-eabi/bin/../lib/gcc/arm-none-eabi/5.2-GNUARM-NONE_v16.01/../../../../arm-none-eabi/lib/armv7-ar/thumb/fpu\libc.a(lib_a-exit.o) (_global_impure_ptr)
c:/program files (x86)/kpit/gnuarm-nonev16.01-eabi/arm-none-eabi/arm-none-eabi/bin/../lib/gcc/arm-none-eabi/5.2-GNUARM-NONE_v16.01/../../../../arm-none-eabi/lib/armv7-ar/thumb/fpu\libc.a(lib_a-lcltime.o)
                              rtc_api.o (localtime)
c:/program files (x86)/kpit/gnuarm-nonev16.01-eabi/arm-none-eabi/arm-none-eabi/bin/../lib/gcc/arm-none-eabi/5.2-GNUARM-NONE_v16.01/../../../../arm-none-eabi/lib/armv7-ar/thumb/fpu\libc.a(lib_a-lcltime_r.o)
                              c:/program files (x86)/kpit/gnuarm-nonev16.01-eabi/arm-none-eabi/arm-none-eabi/bin/../lib/gcc/arm-none-eabi/5.2-GNUARM-NONE_v16.01/../../../../arm-none-eabi/lib/armv7-ar/thumb/fpu\libc.a(lib_a-lcltime.o) (localtime_r)
c:/program files (x86)/kpit/gnuarm-nonev16.01-eabi/arm-none-eabi/arm-none-eabi/bin/../lib/gcc/arm-none-eabi/5.2-GNUARM-NONE_v16.01/../../../../arm-none-eabi/lib/armv7-ar/thumb/fpu\libc.a(lib_a-memcmp.o)
                              if_ether.o (memcmp)
c:/program files (x86)/kpit/gnuarm-nonev16.01-eabi/arm-none-eabi/arm-none-eabi/bin/../lib/gcc/arm-none-eabi/5.2-GNUARM-NONE_v16.01/../../../../arm-none-eabi/lib/armv7-ar/thumb/fpu\libc.a(lib_a-memcpy-stub.o)
                              can_api.o (memcpy)
c:/program files (x86)/kpit/gnuarm-nonev16.01-eabi/arm-none-eabi/arm-none-eabi/bin/../lib/gcc/arm-none-eabi/5.2-GNUARM-NONE_v16.01/../../../../arm-none-eabi/lib/armv7-ar/thumb/fpu\libc.a(lib_a-memmove.o)
                              ip_input.o (memmove)
c:/program files (x86)/kpit/gnuarm-nonev16.01-eabi/arm-none-eabi/arm-none-eabi/bin/../lib/gcc/arm-none-eabi/5.2-GNUARM-NONE_v16.01/../../../../arm-none-eabi/lib/armv7-ar/thumb/fpu\libc.a(lib_a-memset.o)
                              ethernet_api.o (memset)
c:/program files (x86)/kpit/gnuarm-nonev16.01-eabi/arm-none-eabi/arm-none-eabi/bin/../lib/gcc/arm-none-eabi/5.2-GNUARM-NONE_v16.01/../../../../arm-none-eabi/lib/armv7-ar/thumb/fpu\libc.a(lib_a-mktime.o)
                              rtc_api.o (mktime)
c:/program files (x86)/kpit/gnuarm-nonev16.01-eabi/arm-none-eabi/arm-none-eabi/bin/../lib/gcc/arm-none-eabi/5.2-GNUARM-NONE_v16.01/../../../../arm-none-eabi/lib/armv7-ar/thumb/fpu\libc.a(lib_a-month_lengths.o)
                              c:/program files (x86)/kpit/gnuarm-nonev16.01-eabi/arm-none-eabi/arm-none-eabi/bin/../lib/gcc/arm-none-eabi/5.2-GNUARM-NONE_v16.01/../../../../arm-none-eabi/lib/armv7-ar/thumb/fpu\libc.a(lib_a-lcltime_r.o) (__month_lengths)
c:/program files (x86)/kpit/gnuarm-nonev16.01-eabi/arm-none-eabi/arm-none-eabi/bin/../lib/gcc/arm-none-eabi/5.2-GNUARM-NONE_v16.01/../../../../arm-none-eabi/lib/armv7-ar/thumb/fpu\libc.a(lib_a-syscalls.o)
                              c:/program files (x86)/kpit/gnuarm-nonev16.01-eabi/arm-none-eabi/arm-none-eabi/bin/../lib/gcc/arm-none-eabi/5.2-GNUARM-NONE_v16.01/../../../../arm-none-eabi/lib/armv7-ar/thumb/fpu\libc.a(lib_a-exit.o) (_exit)
c:/program files (x86)/kpit/gnuarm-nonev16.01-eabi/arm-none-eabi/arm-none-eabi/bin/../lib/gcc/arm-none-eabi/5.2-GNUARM-NONE_v16.01/../../../../arm-none-eabi/lib/armv7-ar/thumb/fpu\libc.a(lib_a-tzcalc_limits.o)
                              c:/program files (x86)/kpit/gnuarm-nonev16.01-eabi/arm-none-eabi/arm-none-eabi/bin/../lib/gcc/arm-none-eabi/5.2-GNUARM-NONE_v16.01/../../../../arm-none-eabi/lib/armv7-ar/thumb/fpu\libc.a(lib_a-lcltime_r.o) (__tzcalc_limits)
c:/program files (x86)/kpit/gnuarm-nonev16.01-eabi/arm-none-eabi/arm-none-eabi/bin/../lib/gcc/arm-none-eabi/5.2-GNUARM-NONE_v16.01/../../../../arm-none-eabi/lib/armv7-ar/thumb/fpu\libc.a(lib_a-tzlock.o)
                              c:/program files (x86)/kpit/gnuarm-nonev16.01-eabi/arm-none-eabi/arm-none-eabi/bin/../lib/gcc/arm-none-eabi/5.2-GNUARM-NONE_v16.01/../../../../arm-none-eabi/lib/armv7-ar/thumb/fpu\libc.a(lib_a-lcltime_r.o) (__tz_lock)
c:/program files (x86)/kpit/gnuarm-nonev16.01-eabi/arm-none-eabi/arm-none-eabi/bin/../lib/gcc/arm-none-eabi/5.2-GNUARM-NONE_v16.01/../../../../arm-none-eabi/lib/armv7-ar/thumb/fpu\libc.a(lib_a-tzset.o)
                              c:/program files (x86)/kpit/gnuarm-nonev16.01-eabi/arm-none-eabi/arm-none-eabi/bin/../lib/gcc/arm-none-eabi/5.2-GNUARM-NONE_v16.01/../../../../arm-none-eabi/lib/armv7-ar/thumb/fpu\libc.a(lib_a-lcltime_r.o) (_tzset_unlocked)
c:/program files (x86)/kpit/gnuarm-nonev16.01-eabi/arm-none-eabi/arm-none-eabi/bin/../lib/gcc/arm-none-eabi/5.2-GNUARM-NONE_v16.01/../../../../arm-none-eabi/lib/armv7-ar/thumb/fpu\libc.a(lib_a-tzset_r.o)
                              c:/program files (x86)/kpit/gnuarm-nonev16.01-eabi/arm-none-eabi/arm-none-eabi/bin/../lib/gcc/arm-none-eabi/5.2-GNUARM-NONE_v16.01/../../../../arm-none-eabi/lib/armv7-ar/thumb/fpu\libc.a(lib_a-tzset.o) (_tzset_unlocked_r)
c:/program files (x86)/kpit/gnuarm-nonev16.01-eabi/arm-none-eabi/arm-none-eabi/bin/../lib/gcc/arm-none-eabi/5.2-GNUARM-NONE_v16.01/../../../../arm-none-eabi/lib/armv7-ar/thumb/fpu\libc.a(lib_a-tzvars.o)
                              c:/program files (x86)/kpit/gnuarm-nonev16.01-eabi/arm-none-eabi/arm-none-eabi/bin/../lib/gcc/arm-none-eabi/5.2-GNUARM-NONE_v16.01/../../../../arm-none-eabi/lib/armv7-ar/thumb/fpu\libc.a(lib_a-tzset_r.o) (_timezone)
c:/program files (x86)/kpit/gnuarm-nonev16.01-eabi/arm-none-eabi/arm-none-eabi/bin/../lib/gcc/arm-none-eabi/5.2-GNUARM-NONE_v16.01/../../../../arm-none-eabi/lib/armv7-ar/thumb/fpu\libc.a(lib_a-vfprintf.o)
                              error.o (vfprintf)
c:/program files (x86)/kpit/gnuarm-nonev16.01-eabi/arm-none-eabi/arm-none-eabi/bin/../lib/gcc/arm-none-eabi/5.2-GNUARM-NONE_v16.01/../../../../arm-none-eabi/lib/armv7-ar/thumb/fpu\libc.a(lib_a-wsetup.o)
                              c:/program files (x86)/kpit/gnuarm-nonev16.01-eabi/arm-none-eabi/arm-none-eabi/bin/../lib/gcc/arm-none-eabi/5.2-GNUARM-NONE_v16.01/../../../../arm-none-eabi/lib/armv7-ar/thumb/fpu\libc.a(lib_a-vfprintf.o) (__swsetup_r)
c:/program files (x86)/kpit/gnuarm-nonev16.01-eabi/arm-none-eabi/arm-none-eabi/bin/../lib/gcc/arm-none-eabi/5.2-GNUARM-NONE_v16.01/../../../../arm-none-eabi/lib/armv7-ar/thumb/fpu\libc.a(lib_a-__call_atexit.o)
                              c:/program files (x86)/kpit/gnuarm-nonev16.01-eabi/arm-none-eabi/arm-none-eabi/bin/../lib/gcc/arm-none-eabi/5.2-GNUARM-NONE_v16.01/../../../../arm-none-eabi/lib/armv7-ar/thumb/fpu\libc.a(lib_a-exit.o) (__call_exitprocs)
c:/program files (x86)/kpit/gnuarm-nonev16.01-eabi/arm-none-eabi/arm-none-eabi/bin/../lib/gcc/arm-none-eabi/5.2-GNUARM-NONE_v16.01/../../../../arm-none-eabi/lib/armv7-ar/thumb/fpu\libc.a(lib_a-div.o)
                              c:/program files (x86)/kpit/gnuarm-nonev16.01-eabi/arm-none-eabi/arm-none-eabi/bin/../lib/gcc/arm-none-eabi/5.2-GNUARM-NONE_v16.01/../../../../arm-none-eabi/lib/armv7-ar/thumb/fpu\libc.a(lib_a-mktime.o) (div)
c:/program files (x86)/kpit/gnuarm-nonev16.01-eabi/arm-none-eabi/arm-none-eabi/bin/../lib/gcc/arm-none-eabi/5.2-GNUARM-NONE_v16.01/../../../../arm-none-eabi/lib/armv7-ar/thumb/fpu\libc.a(lib_a-dtoa.o)
                              c:/program files (x86)/kpit/gnuarm-nonev16.01-eabi/arm-none-eabi/arm-none-eabi/bin/../lib/gcc/arm-none-eabi/5.2-GNUARM-NONE_v16.01/../../../../arm-none-eabi/lib/armv7-ar/thumb/fpu\libc.a(lib_a-vfprintf.o) (_dtoa_r)
c:/program files (x86)/kpit/gnuarm-nonev16.01-eabi/arm-none-eabi/arm-none-eabi/bin/../lib/gcc/arm-none-eabi/5.2-GNUARM-NONE_v16.01/../../../../arm-none-eabi/lib/armv7-ar/thumb/fpu\libc.a(lib_a-errno.o)
                              c:/program files (x86)/kpit/gnuarm-nonev16.01-eabi/arm-none-eabi/arm-none-eabi/bin/../lib/gcc/arm-none-eabi/5.2-GNUARM-NONE_v16.01/../../../../arm-none-eabi/lib/armv7-ar/thumb/fpu\libc.a(lib_a-syscalls.o) (__errno)
c:/program files (x86)/kpit/gnuarm-nonev16.01-eabi/arm-none-eabi/arm-none-eabi/bin/../lib/gcc/arm-none-eabi/5.2-GNUARM-NONE_v16.01/../../../../arm-none-eabi/lib/armv7-ar/thumb/fpu\libc.a(lib_a-fflush.o)
                              c:/program files (x86)/kpit/gnuarm-nonev16.01-eabi/arm-none-eabi/arm-none-eabi/bin/../lib/gcc/arm-none-eabi/5.2-GNUARM-NONE_v16.01/../../../../arm-none-eabi/lib/armv7-ar/thumb/fpu\libc.a(lib_a-vfprintf.o) (_fflush_r)
c:/program files (x86)/kpit/gnuarm-nonev16.01-eabi/arm-none-eabi/arm-none-eabi/bin/../lib/gcc/arm-none-eabi/5.2-GNUARM-NONE_v16.01/../../../../arm-none-eabi/lib/armv7-ar/thumb/fpu\libc.a(lib_a-findfp.o)
                              c:/program files (x86)/kpit/gnuarm-nonev16.01-eabi/arm-none-eabi/arm-none-eabi/bin/../lib/gcc/arm-none-eabi/5.2-GNUARM-NONE_v16.01/../../../../arm-none-eabi/lib/armv7-ar/thumb/fpu\libc.a(lib_a-syscalls.o) (__sinit)
c:/program files (x86)/kpit/gnuarm-nonev16.01-eabi/arm-none-eabi/arm-none-eabi/bin/../lib/gcc/arm-none-eabi/5.2-GNUARM-NONE_v16.01/../../../../arm-none-eabi/lib/armv7-ar/thumb/fpu\libc.a(lib_a-freer.o)
                              c:/program files (x86)/kpit/gnuarm-nonev16.01-eabi/arm-none-eabi/arm-none-eabi/bin/../lib/gcc/arm-none-eabi/5.2-GNUARM-NONE_v16.01/../../../../arm-none-eabi/lib/armv7-ar/thumb/fpu\libc.a(lib_a-wsetup.o) (_free_r)
c:/program files (x86)/kpit/gnuarm-nonev16.01-eabi/arm-none-eabi/arm-none-eabi/bin/../lib/gcc/arm-none-eabi/5.2-GNUARM-NONE_v16.01/../../../../arm-none-eabi/lib/armv7-ar/thumb/fpu\libc.a(lib_a-fwalk.o)
                              c:/program files (x86)/kpit/gnuarm-nonev16.01-eabi/arm-none-eabi/arm-none-eabi/bin/../lib/gcc/arm-none-eabi/5.2-GNUARM-NONE_v16.01/../../../../arm-none-eabi/lib/armv7-ar/thumb/fpu\libc.a(lib_a-findfp.o) (_fwalk)
c:/program files (x86)/kpit/gnuarm-nonev16.01-eabi/arm-none-eabi/arm-none-eabi/bin/../lib/gcc/arm-none-eabi/5.2-GNUARM-NONE_v16.01/../../../../arm-none-eabi/lib/armv7-ar/thumb/fpu\libc.a(lib_a-getenv_r.o)
                              c:/program files (x86)/kpit/gnuarm-nonev16.01-eabi/arm-none-eabi/arm-none-eabi/bin/../lib/gcc/arm-none-eabi/5.2-GNUARM-NONE_v16.01/../../../../arm-none-eabi/lib/armv7-ar/thumb/fpu\libc.a(lib_a-tzset_r.o) (_getenv_r)
c:/program files (x86)/kpit/gnuarm-nonev16.01-eabi/arm-none-eabi/arm-none-eabi/bin/../lib/gcc/arm-none-eabi/5.2-GNUARM-NONE_v16.01/../../../../arm-none-eabi/lib/armv7-ar/thumb/fpu\libc.a(lib_a-gettzinfo.o)
                              c:/program files (x86)/kpit/gnuarm-nonev16.01-eabi/arm-none-eabi/arm-none-eabi/bin/../lib/gcc/arm-none-eabi/5.2-GNUARM-NONE_v16.01/../../../../arm-none-eabi/lib/armv7-ar/thumb/fpu\libc.a(lib_a-lcltime_r.o) (__gettzinfo)
c:/program files (x86)/kpit/gnuarm-nonev16.01-eabi/arm-none-eabi/arm-none-eabi/bin/../lib/gcc/arm-none-eabi/5.2-GNUARM-NONE_v16.01/../../../../arm-none-eabi/lib/armv7-ar/thumb/fpu\libc.a(lib_a-gmtime_r.o)
                              c:/program files (x86)/kpit/gnuarm-nonev16.01-eabi/arm-none-eabi/arm-none-eabi/bin/../lib/gcc/arm-none-eabi/5.2-GNUARM-NONE_v16.01/../../../../arm-none-eabi/lib/armv7-ar/thumb/fpu\libc.a(lib_a-lcltime_r.o) (gmtime_r)
c:/program files (x86)/kpit/gnuarm-nonev16.01-eabi/arm-none-eabi/arm-none-eabi/bin/../lib/gcc/arm-none-eabi/5.2-GNUARM-NONE_v16.01/../../../../arm-none-eabi/lib/armv7-ar/thumb/fpu\libc.a(lib_a-locale.o)
                              c:/program files (x86)/kpit/gnuarm-nonev16.01-eabi/arm-none-eabi/arm-none-eabi/bin/../lib/gcc/arm-none-eabi/5.2-GNUARM-NONE_v16.01/../../../../arm-none-eabi/lib/armv7-ar/thumb/fpu\libc.a(lib_a-vfprintf.o) (_localeconv_r)
c:/program files (x86)/kpit/gnuarm-nonev16.01-eabi/arm-none-eabi/arm-none-eabi/bin/../lib/gcc/arm-none-eabi/5.2-GNUARM-NONE_v16.01/../../../../arm-none-eabi/lib/armv7-ar/thumb/fpu\libc.a(lib_a-makebuf.o)
                              c:/program files (x86)/kpit/gnuarm-nonev16.01-eabi/arm-none-eabi/arm-none-eabi/bin/../lib/gcc/arm-none-eabi/5.2-GNUARM-NONE_v16.01/../../../../arm-none-eabi/lib/armv7-ar/thumb/fpu\libc.a(lib_a-wsetup.o) (__smakebuf_r)
c:/program files (x86)/kpit/gnuarm-nonev16.01-eabi/arm-none-eabi/arm-none-eabi/bin/../lib/gcc/arm-none-eabi/5.2-GNUARM-NONE_v16.01/../../../../arm-none-eabi/lib/armv7-ar/thumb/fpu\libc.a(lib_a-malloc.o)
                              c:/program files (x86)/kpit/gnuarm-nonev16.01-eabi/arm-none-eabi/arm-none-eabi/bin/../lib/gcc/arm-none-eabi/5.2-GNUARM-NONE_v16.01/../../../../arm-none-eabi/lib/armv7-ar/thumb/fpu\libc.a(lib_a-tzset_r.o) (free)
c:/program files (x86)/kpit/gnuarm-nonev16.01-eabi/arm-none-eabi/arm-none-eabi/bin/../lib/gcc/arm-none-eabi/5.2-GNUARM-NONE_v16.01/../../../../arm-none-eabi/lib/armv7-ar/thumb/fpu\libc.a(lib_a-mallocr.o)
                              c:/program files (x86)/kpit/gnuarm-nonev16.01-eabi/arm-none-eabi/arm-none-eabi/bin/../lib/gcc/arm-none-eabi/5.2-GNUARM-NONE_v16.01/../../../../arm-none-eabi/lib/armv7-ar/thumb/fpu\libc.a(lib_a-tzset_r.o) (_malloc_r)
c:/program files (x86)/kpit/gnuarm-nonev16.01-eabi/arm-none-eabi/arm-none-eabi/bin/../lib/gcc/arm-none-eabi/5.2-GNUARM-NONE_v16.01/../../../../arm-none-eabi/lib/armv7-ar/thumb/fpu\libc.a(lib_a-memchr-stub.o)
                              c:/program files (x86)/kpit/gnuarm-nonev16.01-eabi/arm-none-eabi/arm-none-eabi/bin/../lib/gcc/arm-none-eabi/5.2-GNUARM-NONE_v16.01/../../../../arm-none-eabi/lib/armv7-ar/thumb/fpu\libc.a(lib_a-vfprintf.o) (memchr)
c:/program files (x86)/kpit/gnuarm-nonev16.01-eabi/arm-none-eabi/arm-none-eabi/bin/../lib/gcc/arm-none-eabi/5.2-GNUARM-NONE_v16.01/../../../../arm-none-eabi/lib/armv7-ar/thumb/fpu\libc.a(lib_a-mlock.o)
                              c:/program files (x86)/kpit/gnuarm-nonev16.01-eabi/arm-none-eabi/arm-none-eabi/bin/../lib/gcc/arm-none-eabi/5.2-GNUARM-NONE_v16.01/../../../../arm-none-eabi/lib/armv7-ar/thumb/fpu\libc.a(lib_a-freer.o) (__malloc_lock)
c:/program files (x86)/kpit/gnuarm-nonev16.01-eabi/arm-none-eabi/arm-none-eabi/bin/../lib/gcc/arm-none-eabi/5.2-GNUARM-NONE_v16.01/../../../../arm-none-eabi/lib/armv7-ar/thumb/fpu\libc.a(lib_a-mprec.o)
                              c:/program files (x86)/kpit/gnuarm-nonev16.01-eabi/arm-none-eabi/arm-none-eabi/bin/../lib/gcc/arm-none-eabi/5.2-GNUARM-NONE_v16.01/../../../../arm-none-eabi/lib/armv7-ar/thumb/fpu\libc.a(lib_a-dtoa.o) (_Balloc)
c:/program files (x86)/kpit/gnuarm-nonev16.01-eabi/arm-none-eabi/arm-none-eabi/bin/../lib/gcc/arm-none-eabi/5.2-GNUARM-NONE_v16.01/../../../../arm-none-eabi/lib/armv7-ar/thumb/fpu\libc.a(lib_a-sbrkr.o)
                              c:/program files (x86)/kpit/gnuarm-nonev16.01-eabi/arm-none-eabi/arm-none-eabi/bin/../lib/gcc/arm-none-eabi/5.2-GNUARM-NONE_v16.01/../../../../arm-none-eabi/lib/armv7-ar/thumb/fpu\libc.a(lib_a-freer.o) (_sbrk_r)
c:/program files (x86)/kpit/gnuarm-nonev16.01-eabi/arm-none-eabi/arm-none-eabi/bin/../lib/gcc/arm-none-eabi/5.2-GNUARM-NONE_v16.01/../../../../arm-none-eabi/lib/armv7-ar/thumb/fpu\libc.a(lib_a-s_fpclassify.o)
                              c:/program files (x86)/kpit/gnuarm-nonev16.01-eabi/arm-none-eabi/arm-none-eabi/bin/../lib/gcc/arm-none-eabi/5.2-GNUARM-NONE_v16.01/../../../../arm-none-eabi/lib/armv7-ar/thumb/fpu\libc.a(lib_a-vfprintf.o) (__fpclassifyd)
c:/program files (x86)/kpit/gnuarm-nonev16.01-eabi/arm-none-eabi/arm-none-eabi/bin/../lib/gcc/arm-none-eabi/5.2-GNUARM-NONE_v16.01/../../../../arm-none-eabi/lib/armv7-ar/thumb/fpu\libc.a(lib_a-siscanf.o)
                              c:/program files (x86)/kpit/gnuarm-nonev16.01-eabi/arm-none-eabi/arm-none-eabi/bin/../lib/gcc/arm-none-eabi/5.2-GNUARM-NONE_v16.01/../../../../arm-none-eabi/lib/armv7-ar/thumb/fpu\libc.a(lib_a-tzset_r.o) (siscanf)
c:/program files (x86)/kpit/gnuarm-nonev16.01-eabi/arm-none-eabi/arm-none-eabi/bin/../lib/gcc/arm-none-eabi/5.2-GNUARM-NONE_v16.01/../../../../arm-none-eabi/lib/armv7-ar/thumb/fpu\libc.a(lib_a-stdio.o)
                              c:/program files (x86)/kpit/gnuarm-nonev16.01-eabi/arm-none-eabi/arm-none-eabi/bin/../lib/gcc/arm-none-eabi/5.2-GNUARM-NONE_v16.01/../../../../arm-none-eabi/lib/armv7-ar/thumb/fpu\libc.a(lib_a-findfp.o) (__sread)
c:/program files (x86)/kpit/gnuarm-nonev16.01-eabi/arm-none-eabi/arm-none-eabi/bin/../lib/gcc/arm-none-eabi/5.2-GNUARM-NONE_v16.01/../../../../arm-none-eabi/lib/armv7-ar/thumb/fpu\libc.a(lib_a-strcmp.o)
                              c:/program files (x86)/kpit/gnuarm-nonev16.01-eabi/arm-none-eabi/arm-none-eabi/bin/../lib/gcc/arm-none-eabi/5.2-GNUARM-NONE_v16.01/../../../../arm-none-eabi/lib/armv7-ar/thumb/fpu\libc.a(lib_a-tzset_r.o) (strcmp)
c:/program files (x86)/kpit/gnuarm-nonev16.01-eabi/arm-none-eabi/arm-none-eabi/bin/../lib/gcc/arm-none-eabi/5.2-GNUARM-NONE_v16.01/../../../../arm-none-eabi/lib/armv7-ar/thumb/fpu\libc.a(lib_a-strcpy.o)
                              c:/program files (x86)/kpit/gnuarm-nonev16.01-eabi/arm-none-eabi/arm-none-eabi/bin/../lib/gcc/arm-none-eabi/5.2-GNUARM-NONE_v16.01/../../../../arm-none-eabi/lib/armv7-ar/thumb/fpu\libc.a(lib_a-tzset_r.o) (strcpy)
c:/program files (x86)/kpit/gnuarm-nonev16.01-eabi/arm-none-eabi/arm-none-eabi/bin/../lib/gcc/arm-none-eabi/5.2-GNUARM-NONE_v16.01/../../../../arm-none-eabi/lib/armv7-ar/thumb/fpu\libc.a(lib_a-strlen.o)
                              c:/program files (x86)/kpit/gnuarm-nonev16.01-eabi/arm-none-eabi/arm-none-eabi/bin/../lib/gcc/arm-none-eabi/5.2-GNUARM-NONE_v16.01/../../../../arm-none-eabi/lib/armv7-ar/thumb/fpu\libc.a(lib_a-syscalls.o) (strlen)
c:/program files (x86)/kpit/gnuarm-nonev16.01-eabi/arm-none-eabi/arm-none-eabi/bin/../lib/gcc/arm-none-eabi/5.2-GNUARM-NONE_v16.01/../../../../arm-none-eabi/lib/armv7-ar/thumb/fpu\libc.a(lib_a-strncmp.o)
                              c:/program files (x86)/kpit/gnuarm-nonev16.01-eabi/arm-none-eabi/arm-none-eabi/bin/../lib/gcc/arm-none-eabi/5.2-GNUARM-NONE_v16.01/../../../../arm-none-eabi/lib/armv7-ar/thumb/fpu\libc.a(lib_a-getenv_r.o) (strncmp)
c:/program files (x86)/kpit/gnuarm-nonev16.01-eabi/arm-none-eabi/arm-none-eabi/bin/../lib/gcc/arm-none-eabi/5.2-GNUARM-NONE_v16.01/../../../../arm-none-eabi/lib/armv7-ar/thumb/fpu\libc.a(lib_a-strtoul.o)
                              c:/program files (x86)/kpit/gnuarm-nonev16.01-eabi/arm-none-eabi/arm-none-eabi/bin/../lib/gcc/arm-none-eabi/5.2-GNUARM-NONE_v16.01/../../../../arm-none-eabi/lib/armv7-ar/thumb/fpu\libc.a(lib_a-tzset_r.o) (strtoul)
c:/program files (x86)/kpit/gnuarm-nonev16.01-eabi/arm-none-eabi/arm-none-eabi/bin/../lib/gcc/arm-none-eabi/5.2-GNUARM-NONE_v16.01/../../../../arm-none-eabi/lib/armv7-ar/thumb/fpu\libc.a(lib_a-svfiscanf.o)
                              c:/program files (x86)/kpit/gnuarm-nonev16.01-eabi/arm-none-eabi/arm-none-eabi/bin/../lib/gcc/arm-none-eabi/5.2-GNUARM-NONE_v16.01/../../../../arm-none-eabi/lib/armv7-ar/thumb/fpu\libc.a(lib_a-siscanf.o) (__ssvfiscanf_r)
c:/program files (x86)/kpit/gnuarm-nonev16.01-eabi/arm-none-eabi/arm-none-eabi/bin/../lib/gcc/arm-none-eabi/5.2-GNUARM-NONE_v16.01/../../../../arm-none-eabi/lib/armv7-ar/thumb/fpu\libc.a(lib_a-ungetc.o)
                              c:/program files (x86)/kpit/gnuarm-nonev16.01-eabi/arm-none-eabi/arm-none-eabi/bin/../lib/gcc/arm-none-eabi/5.2-GNUARM-NONE_v16.01/../../../../arm-none-eabi/lib/armv7-ar/thumb/fpu\libc.a(lib_a-svfiscanf.o) (__submore)
c:/program files (x86)/kpit/gnuarm-nonev16.01-eabi/arm-none-eabi/arm-none-eabi/bin/../lib/gcc/arm-none-eabi/5.2-GNUARM-NONE_v16.01/../../../../arm-none-eabi/lib/armv7-ar/thumb/fpu\libc.a(lib_a-vfiprintf.o)
                              c:/program files (x86)/kpit/gnuarm-nonev16.01-eabi/arm-none-eabi/arm-none-eabi/bin/../lib/gcc/arm-none-eabi/5.2-GNUARM-NONE_v16.01/../../../../arm-none-eabi/lib/armv7-ar/thumb/fpu\libc.a(lib_a-vfprintf.o) (__sprint_r)
c:/program files (x86)/kpit/gnuarm-nonev16.01-eabi/arm-none-eabi/arm-none-eabi/bin/../lib/gcc/arm-none-eabi/5.2-GNUARM-NONE_v16.01/../../../../arm-none-eabi/lib/armv7-ar/thumb/fpu\libc.a(lib_a-writer.o)
                              c:/program files (x86)/kpit/gnuarm-nonev16.01-eabi/arm-none-eabi/arm-none-eabi/bin/../lib/gcc/arm-none-eabi/5.2-GNUARM-NONE_v16.01/../../../../arm-none-eabi/lib/armv7-ar/thumb/fpu\libc.a(lib_a-stdio.o) (_write_r)
c:/program files (x86)/kpit/gnuarm-nonev16.01-eabi/arm-none-eabi/arm-none-eabi/bin/../lib/gcc/arm-none-eabi/5.2-GNUARM-NONE_v16.01/../../../../arm-none-eabi/lib/armv7-ar/thumb/fpu\libc.a(lib_a-callocr.o)
                              c:/program files (x86)/kpit/gnuarm-nonev16.01-eabi/arm-none-eabi/arm-none-eabi/bin/../lib/gcc/arm-none-eabi/5.2-GNUARM-NONE_v16.01/../../../../arm-none-eabi/lib/armv7-ar/thumb/fpu\libc.a(lib_a-mprec.o) (_calloc_r)
c:/program files (x86)/kpit/gnuarm-nonev16.01-eabi/arm-none-eabi/arm-none-eabi/bin/../lib/gcc/arm-none-eabi/5.2-GNUARM-NONE_v16.01/../../../../arm-none-eabi/lib/armv7-ar/thumb/fpu\libc.a(lib_a-closer.o)
                              c:/program files (x86)/kpit/gnuarm-nonev16.01-eabi/arm-none-eabi/arm-none-eabi/bin/../lib/gcc/arm-none-eabi/5.2-GNUARM-NONE_v16.01/../../../../arm-none-eabi/lib/armv7-ar/thumb/fpu\libc.a(lib_a-stdio.o) (_close_r)
c:/program files (x86)/kpit/gnuarm-nonev16.01-eabi/arm-none-eabi/arm-none-eabi/bin/../lib/gcc/arm-none-eabi/5.2-GNUARM-NONE_v16.01/../../../../arm-none-eabi/lib/armv7-ar/thumb/fpu\libc.a(lib_a-ctype_.o)
                              c:/program files (x86)/kpit/gnuarm-nonev16.01-eabi/arm-none-eabi/arm-none-eabi/bin/../lib/gcc/arm-none-eabi/5.2-GNUARM-NONE_v16.01/../../../../arm-none-eabi/lib/armv7-ar/thumb/fpu\libc.a(lib_a-strtoul.o) (__ctype_ptr__)
c:/program files (x86)/kpit/gnuarm-nonev16.01-eabi/arm-none-eabi/arm-none-eabi/bin/../lib/gcc/arm-none-eabi/5.2-GNUARM-NONE_v16.01/../../../../arm-none-eabi/lib/armv7-ar/thumb/fpu\libc.a(lib_a-environ.o)
                              c:/program files (x86)/kpit/gnuarm-nonev16.01-eabi/arm-none-eabi/arm-none-eabi/bin/../lib/gcc/arm-none-eabi/5.2-GNUARM-NONE_v16.01/../../../../arm-none-eabi/lib/armv7-ar/thumb/fpu\libc.a(lib_a-getenv_r.o) (environ)
c:/program files (x86)/kpit/gnuarm-nonev16.01-eabi/arm-none-eabi/arm-none-eabi/bin/../lib/gcc/arm-none-eabi/5.2-GNUARM-NONE_v16.01/../../../../arm-none-eabi/lib/armv7-ar/thumb/fpu\libc.a(lib_a-envlock.o)
                              c:/program files (x86)/kpit/gnuarm-nonev16.01-eabi/arm-none-eabi/arm-none-eabi/bin/../lib/gcc/arm-none-eabi/5.2-GNUARM-NONE_v16.01/../../../../arm-none-eabi/lib/armv7-ar/thumb/fpu\libc.a(lib_a-getenv_r.o) (__env_lock)
c:/program files (x86)/kpit/gnuarm-nonev16.01-eabi/arm-none-eabi/arm-none-eabi/bin/../lib/gcc/arm-none-eabi/5.2-GNUARM-NONE_v16.01/../../../../arm-none-eabi/lib/armv7-ar/thumb/fpu\libc.a(lib_a-fclose.o)
                              c:/program files (x86)/kpit/gnuarm-nonev16.01-eabi/arm-none-eabi/arm-none-eabi/bin/../lib/gcc/arm-none-eabi/5.2-GNUARM-NONE_v16.01/../../../../arm-none-eabi/lib/armv7-ar/thumb/fpu\libc.a(lib_a-findfp.o) (_fclose_r)
c:/program files (x86)/kpit/gnuarm-nonev16.01-eabi/arm-none-eabi/arm-none-eabi/bin/../lib/gcc/arm-none-eabi/5.2-GNUARM-NONE_v16.01/../../../../arm-none-eabi/lib/armv7-ar/thumb/fpu\libc.a(lib_a-fputwc.o)
                              c:/program files (x86)/kpit/gnuarm-nonev16.01-eabi/arm-none-eabi/arm-none-eabi/bin/../lib/gcc/arm-none-eabi/5.2-GNUARM-NONE_v16.01/../../../../arm-none-eabi/lib/armv7-ar/thumb/fpu\libc.a(lib_a-vfiprintf.o) (_fputwc_r)
c:/program files (x86)/kpit/gnuarm-nonev16.01-eabi/arm-none-eabi/arm-none-eabi/bin/../lib/gcc/arm-none-eabi/5.2-GNUARM-NONE_v16.01/../../../../arm-none-eabi/lib/armv7-ar/thumb/fpu\libc.a(lib_a-fstatr.o)
                              c:/program files (x86)/kpit/gnuarm-nonev16.01-eabi/arm-none-eabi/arm-none-eabi/bin/../lib/gcc/arm-none-eabi/5.2-GNUARM-NONE_v16.01/../../../../arm-none-eabi/lib/armv7-ar/thumb/fpu\libc.a(lib_a-makebuf.o) (_fstat_r)
c:/program files (x86)/kpit/gnuarm-nonev16.01-eabi/arm-none-eabi/arm-none-eabi/bin/../lib/gcc/arm-none-eabi/5.2-GNUARM-NONE_v16.01/../../../../arm-none-eabi/lib/armv7-ar/thumb/fpu\libc.a(lib_a-fvwrite.o)
                              c:/program files (x86)/kpit/gnuarm-nonev16.01-eabi/arm-none-eabi/arm-none-eabi/bin/../lib/gcc/arm-none-eabi/5.2-GNUARM-NONE_v16.01/../../../../arm-none-eabi/lib/armv7-ar/thumb/fpu\libc.a(lib_a-vfiprintf.o) (__sfvwrite_r)
c:/program files (x86)/kpit/gnuarm-nonev16.01-eabi/arm-none-eabi/arm-none-eabi/bin/../lib/gcc/arm-none-eabi/5.2-GNUARM-NONE_v16.01/../../../../arm-none-eabi/lib/armv7-ar/thumb/fpu\libc.a(lib_a-isattyr.o)
                              c:/program files (x86)/kpit/gnuarm-nonev16.01-eabi/arm-none-eabi/arm-none-eabi/bin/../lib/gcc/arm-none-eabi/5.2-GNUARM-NONE_v16.01/../../../../arm-none-eabi/lib/armv7-ar/thumb/fpu\libc.a(lib_a-makebuf.o) (_isatty_r)
c:/program files (x86)/kpit/gnuarm-nonev16.01-eabi/arm-none-eabi/arm-none-eabi/bin/../lib/gcc/arm-none-eabi/5.2-GNUARM-NONE_v16.01/../../../../arm-none-eabi/lib/armv7-ar/thumb/fpu\libc.a(lib_a-iswspace.o)
                              c:/program files (x86)/kpit/gnuarm-nonev16.01-eabi/arm-none-eabi/arm-none-eabi/bin/../lib/gcc/arm-none-eabi/5.2-GNUARM-NONE_v16.01/../../../../arm-none-eabi/lib/armv7-ar/thumb/fpu\libc.a(lib_a-svfiscanf.o) (iswspace)
c:/program files (x86)/kpit/gnuarm-nonev16.01-eabi/arm-none-eabi/arm-none-eabi/bin/../lib/gcc/arm-none-eabi/5.2-GNUARM-NONE_v16.01/../../../../arm-none-eabi/lib/armv7-ar/thumb/fpu\libc.a(lib_a-lseekr.o)
                              c:/program files (x86)/kpit/gnuarm-nonev16.01-eabi/arm-none-eabi/arm-none-eabi/bin/../lib/gcc/arm-none-eabi/5.2-GNUARM-NONE_v16.01/../../../../arm-none-eabi/lib/armv7-ar/thumb/fpu\libc.a(lib_a-stdio.o) (_lseek_r)
c:/program files (x86)/kpit/gnuarm-nonev16.01-eabi/arm-none-eabi/arm-none-eabi/bin/../lib/gcc/arm-none-eabi/5.2-GNUARM-NONE_v16.01/../../../../arm-none-eabi/lib/armv7-ar/thumb/fpu\libc.a(lib_a-mbrtowc.o)
                              c:/program files (x86)/kpit/gnuarm-nonev16.01-eabi/arm-none-eabi/arm-none-eabi/bin/../lib/gcc/arm-none-eabi/5.2-GNUARM-NONE_v16.01/../../../../arm-none-eabi/lib/armv7-ar/thumb/fpu\libc.a(lib_a-svfiscanf.o) (_mbrtowc_r)
c:/program files (x86)/kpit/gnuarm-nonev16.01-eabi/arm-none-eabi/arm-none-eabi/bin/../lib/gcc/arm-none-eabi/5.2-GNUARM-NONE_v16.01/../../../../arm-none-eabi/lib/armv7-ar/thumb/fpu\libc.a(lib_a-mbtowc_r.o)
                              c:/program files (x86)/kpit/gnuarm-nonev16.01-eabi/arm-none-eabi/arm-none-eabi/bin/../lib/gcc/arm-none-eabi/5.2-GNUARM-NONE_v16.01/../../../../arm-none-eabi/lib/armv7-ar/thumb/fpu\libc.a(lib_a-mbrtowc.o) (__mbtowc)
c:/program files (x86)/kpit/gnuarm-nonev16.01-eabi/arm-none-eabi/arm-none-eabi/bin/../lib/gcc/arm-none-eabi/5.2-GNUARM-NONE_v16.01/../../../../arm-none-eabi/lib/armv7-ar/thumb/fpu\libc.a(lib_a-readr.o)
                              c:/program files (x86)/kpit/gnuarm-nonev16.01-eabi/arm-none-eabi/arm-none-eabi/bin/../lib/gcc/arm-none-eabi/5.2-GNUARM-NONE_v16.01/../../../../arm-none-eabi/lib/armv7-ar/thumb/fpu\libc.a(lib_a-stdio.o) (_read_r)
c:/program files (x86)/kpit/gnuarm-nonev16.01-eabi/arm-none-eabi/arm-none-eabi/bin/../lib/gcc/arm-none-eabi/5.2-GNUARM-NONE_v16.01/../../../../arm-none-eabi/lib/armv7-ar/thumb/fpu\libc.a(lib_a-reallocr.o)
                              c:/program files (x86)/kpit/gnuarm-nonev16.01-eabi/arm-none-eabi/arm-none-eabi/bin/../lib/gcc/arm-none-eabi/5.2-GNUARM-NONE_v16.01/../../../../arm-none-eabi/lib/armv7-ar/thumb/fpu\libc.a(lib_a-ungetc.o) (_realloc_r)
c:/program files (x86)/kpit/gnuarm-nonev16.01-eabi/arm-none-eabi/arm-none-eabi/bin/../lib/gcc/arm-none-eabi/5.2-GNUARM-NONE_v16.01/../../../../arm-none-eabi/lib/armv7-ar/thumb/fpu\libc.a(lib_a-reent.o)
                              c:/program files (x86)/kpit/gnuarm-nonev16.01-eabi/arm-none-eabi/arm-none-eabi/bin/../lib/gcc/arm-none-eabi/5.2-GNUARM-NONE_v16.01/../../../../arm-none-eabi/lib/armv7-ar/thumb/fpu\libc.a(lib_a-sbrkr.o) (errno)
c:/program files (x86)/kpit/gnuarm-nonev16.01-eabi/arm-none-eabi/arm-none-eabi/bin/../lib/gcc/arm-none-eabi/5.2-GNUARM-NONE_v16.01/../../../../arm-none-eabi/lib/armv7-ar/thumb/fpu\libc.a(lib_a-sccl.o)
                              c:/program files (x86)/kpit/gnuarm-nonev16.01-eabi/arm-none-eabi/arm-none-eabi/bin/../lib/gcc/arm-none-eabi/5.2-GNUARM-NONE_v16.01/../../../../arm-none-eabi/lib/armv7-ar/thumb/fpu\libc.a(lib_a-svfiscanf.o) (__sccl)
c:/program files (x86)/kpit/gnuarm-nonev16.01-eabi/arm-none-eabi/arm-none-eabi/bin/../lib/gcc/arm-none-eabi/5.2-GNUARM-NONE_v16.01/../../../../arm-none-eabi/lib/armv7-ar/thumb/fpu\libc.a(lib_a-strtol.o)
                              c:/program files (x86)/kpit/gnuarm-nonev16.01-eabi/arm-none-eabi/arm-none-eabi/bin/../lib/gcc/arm-none-eabi/5.2-GNUARM-NONE_v16.01/../../../../arm-none-eabi/lib/armv7-ar/thumb/fpu\libc.a(lib_a-svfiscanf.o) (_strtol_r)
c:/program files (x86)/kpit/gnuarm-nonev16.01-eabi/arm-none-eabi/arm-none-eabi/bin/../lib/gcc/arm-none-eabi/5.2-GNUARM-NONE_v16.01/../../../../arm-none-eabi/lib/armv7-ar/thumb/fpu\libc.a(lib_a-wbuf.o)
                              c:/program files (x86)/kpit/gnuarm-nonev16.01-eabi/arm-none-eabi/arm-none-eabi/bin/../lib/gcc/arm-none-eabi/5.2-GNUARM-NONE_v16.01/../../../../arm-none-eabi/lib/armv7-ar/thumb/fpu\libc.a(lib_a-fputwc.o) (__swbuf_r)
c:/program files (x86)/kpit/gnuarm-nonev16.01-eabi/arm-none-eabi/arm-none-eabi/bin/../lib/gcc/arm-none-eabi/5.2-GNUARM-NONE_v16.01/../../../../arm-none-eabi/lib/armv7-ar/thumb/fpu\libc.a(lib_a-wcrtomb.o)
                              c:/program files (x86)/kpit/gnuarm-nonev16.01-eabi/arm-none-eabi/arm-none-eabi/bin/../lib/gcc/arm-none-eabi/5.2-GNUARM-NONE_v16.01/../../../../arm-none-eabi/lib/armv7-ar/thumb/fpu\libc.a(lib_a-fputwc.o) (_wcrtomb_r)
c:/program files (x86)/kpit/gnuarm-nonev16.01-eabi/arm-none-eabi/arm-none-eabi/bin/../lib/gcc/arm-none-eabi/5.2-GNUARM-NONE_v16.01/../../../../arm-none-eabi/lib/armv7-ar/thumb/fpu\libc.a(lib_a-wctomb_r.o)
                              c:/program files (x86)/kpit/gnuarm-nonev16.01-eabi/arm-none-eabi/arm-none-eabi/bin/../lib/gcc/arm-none-eabi/5.2-GNUARM-NONE_v16.01/../../../../arm-none-eabi/lib/armv7-ar/thumb/fpu\libc.a(lib_a-wcrtomb.o) (__wctomb)
c:/program files (x86)/kpit/gnuarm-nonev16.01-eabi/arm-none-eabi/arm-none-eabi/bin/../lib/gcc/arm-none-eabi/5.2-GNUARM-NONE_v16.01/armv7-ar/thumb/fpu\libgcc.a(_udivsi3.o)
                              sample1n.o (__aeabi_uidiv)
c:/program files (x86)/kpit/gnuarm-nonev16.01-eabi/arm-none-eabi/arm-none-eabi/bin/../lib/gcc/arm-none-eabi/5.2-GNUARM-NONE_v16.01/armv7-ar/thumb/fpu\libgcc.a(_divsi3.o)
                              serial_api.o (__aeabi_idiv)
c:/program files (x86)/kpit/gnuarm-nonev16.01-eabi/arm-none-eabi/arm-none-eabi/bin/../lib/gcc/arm-none-eabi/5.2-GNUARM-NONE_v16.01/armv7-ar/thumb/fpu\libgcc.a(_dvmd_tls.o)
                              c:/program files (x86)/kpit/gnuarm-nonev16.01-eabi/arm-none-eabi/arm-none-eabi/bin/../lib/gcc/arm-none-eabi/5.2-GNUARM-NONE_v16.01/armv7-ar/thumb/fpu\libgcc.a(_udivsi3.o) (__aeabi_idiv0)
c:/program files (x86)/kpit/gnuarm-nonev16.01-eabi/arm-none-eabi/arm-none-eabi/bin/../lib/gcc/arm-none-eabi/5.2-GNUARM-NONE_v16.01/armv7-ar/thumb/fpu\libgcc.a(_aeabi_uldivmod.o)
                              pwmout_api.o (__aeabi_uldivmod)
c:/program files (x86)/kpit/gnuarm-nonev16.01-eabi/arm-none-eabi/arm-none-eabi/bin/../lib/gcc/arm-none-eabi/5.2-GNUARM-NONE_v16.01/armv7-ar/thumb/fpu\libgcc.a(_udivmoddi4.o)
                              c:/program files (x86)/kpit/gnuarm-nonev16.01-eabi/arm-none-eabi/arm-none-eabi/bin/../lib/gcc/arm-none-eabi/5.2-GNUARM-NONE_v16.01/armv7-ar/thumb/fpu\libgcc.a(_aeabi_uldivmod.o) (__udivmoddi4)

Allocating common symbols
Common symbol       size              file

_kernel_free_cyccb  0x8               .\libkernel.a(cyclic.o)
_kernel_isrcb_table
                    0x24              kernel_cfg.o
_kernel_isr_queue_table
                    0x18              kernel_cfg.o
_kernel_cyccb_table
                    0x30              kernel_cfg.o
_kernel_p_schedtsk  0x4               .\libkernel.a(task.o)
_kernel_pdqinib_table
                    0x0               kernel_cfg.o
_kernel_stack_ETHER_INPUT_TASK
                    0x400             kernel_cfg.o
_kernel_monotonic_evttim
                    0x4               .\libkernel.a(time_event.o)
_kernel_mtxcb_table
                    0x0               kernel_cfg.o
tSCIF_CB_tab        0x8               tSCIF_tecsgen.o
errno               0x4               c:/program files (x86)/kpit/gnuarm-nonev16.01-eabi/arm-none-eabi/arm-none-eabi/bin/../lib/gcc/arm-none-eabi/5.2-GNUARM-NONE_v16.01/../../../../arm-none-eabi/lib/armv7-ar/thumb/fpu\libc.a(lib_a-reent.o)
tcp_rwbuf           0x200             sample1n.o
_kernel_in_signal_time
                    0x4               .\libkernel.a(time_event.o)
net_count_tcp       0x60              net_count.o
_kernel_apdqinib_table
                    0x0               kernel_cfg.o
_kernel_stack_TSKID_tTask_LogTask_Task
                    0x1000            kernel_cfg.o
_kernel_pdqcb_table
                    0x0               kernel_cfg.o
_kernel_boundary_evttim
                    0x4               .\libkernel.a(time_event.o)
_kernel_free_almcb  0x8               .\libkernel.a(alarm.o)
_kernel_stack_MAIN_TASK
                    0x1000            kernel_cfg.o
net_count_ether     0x18              net_count.o
_kernel_ampfinib_table
                    0x0               kernel_cfg.o
_kernel_stack_TASK1
                    0x1000            kernel_cfg.o
_kernel_aisrinib_table
                    0x0               kernel_cfg.o
_kernel_current_evttim
                    0x4               .\libkernel.a(time_event.o)
net_count_icmp4     0x18              net_count.o
_kernel_acyc_nfyinfo_table
                    0x0               kernel_cfg.o
_kernel_dtqcb_table
                    0x20              kernel_cfg.o
dst                 0x8               sample1n.o
_kernel_aalm_nfyinfo_table
                    0x14              kernel_cfg.o
_kernel_ready_queue
                    0x80              .\libkernel.a(task.o)
_kernel_atinib_table
                    0x48              kernel_cfg.o
_kernel_semcb_table
                    0x110             kernel_cfg.o
message             0x3               sample1.o
_kernel_alminib_table
                    0x0               kernel_cfg.o
task_loop           0x4               sample1.o
_kernel_tmevt_heap  0x44              kernel_cfg.o
_kernel_dspflg      0x4               .\libkernel.a(task.o)
_kernel_free_flgcb  0x8               .\libkernel.a(eventflag.o)
tSerialPortMain_SerialPort1_SerialPortMain_CB_receiveBuffer_INIT
                    0x100             tSerialPortMain_tecsgen.o
_kernel_istack      0x2000            kernel_cfg.o
_kernel_ready_primap
                    0x2               .\libkernel.a(task.o)
_kernel_almcb_table
                    0x18              kernel_cfg.o
tcp_swbuf           0x200             sample1n.o
_kernel_mtxinib_table
                    0x0               kernel_cfg.o
_kernel_aflginib_table
                    0x0               kernel_cfg.o
net_count_ip4       0x50              net_count.o
_kernel_free_tcb    0x8               .\libkernel.a(task.o)
_kernel_current_hrtcnt
                    0x4               .\libkernel.a(time_event.o)
_kernel_amtxinib_table
                    0x0               kernel_cfg.o
_kernel_stack_IF_MBED_PHY_TASK
                    0x100             kernel_cfg.o
_kernel_stack_ETHER_OUTPUT_TASK
                    0x400             kernel_cfg.o
_kernel_aalminib_table
                    0xc               kernel_cfg.o
_kernel_stack_TCP_OUTPUT_TASK
                    0x400             kernel_cfg.o
_kernel_p_runtsk    0x4               .\libkernel.a(task.o)
net_count_ether_nic
                    0x30              net_count.o
_tinet_tcp_twcep    0xd8              tcp_input.o
net_count_arp       0x18              net_count.o
_kernel_free_mpfcb  0x8               .\libkernel.a(mempfix.o)
_kernel_free_semcb  0x8               .\libkernel.a(semaphore.o)
IRQNo               0x1               gpio_irq_api.o
addr                0x28              sample1n.o
_kernel_mpfcb_table
                    0xa8              kernel_cfg.o
_kernel_tcb_table   0x1a0             kernel_cfg.o
_kernel_excpt_nest_count
                    0x4               .\libkernel.a(core_kernel_impl.o)
_kernel_enadsp      0x4               .\libkernel.a(task.o)
tSysLog_SINGLE_CELL_CB
                    0x1c              tSysLog_tecsgen.o
tSerialPortMain_SerialPort1_SerialPortMain_CB_sendBuffer_INIT
                    0x100             tSerialPortMain_tecsgen.o
cpuexc_tskid        0x4               sample1.o
_kernel_stack_TASK2
                    0x1000            kernel_cfg.o
_kernel_systim_offset
                    0x8               .\libkernel.a(time_event.o)
_kernel_stack_NET_TIMER_TASK
                    0x400             kernel_cfg.o
_kernel_aseminib_table
                    0x0               kernel_cfg.o
_kernel_free_dtqcb  0x8               .\libkernel.a(dataqueue.o)
stdio_uart          0x8               serial_api.o
_kernel_acycinib_table
                    0x0               kernel_cfg.o
tSysLog_SINGLE_CELL_CB_logBuffer_INIT
                    0x400             tSysLog_tecsgen.o
_kernel_flgcb_table
                    0x30              kernel_cfg.o
tSerialPortMain_CB_tab
                    0x34              tSerialPortMain_tecsgen.o
_kernel_stack_EXC_TASK
                    0x1000            kernel_cfg.o
_kernel_adtqinib_table
                    0x0               kernel_cfg.o
_kernel_free_isrcb  0x8               .\libkernel.a(interrupt.o)

Memory Configuration

Name             Origin             Length             Attributes
ROM              0x00000000         0x02000000         xr
BOOT_LOADER      0x18000000         0x00004000         xr
SFLASH           0x18004000         0x07ffc000         xr
L_TTB            0x20000000         0x00004000         rw
RAM              0x20020000         0x00700000         xrw
RAM_NC           0x20900000         0x00100000         xrw
*default*        0x00000000         0xffffffff

Linker script and memory map

LOAD startup_RZ1AH.o
LOAD sample1n.o
LOAD sample1.o
LOAD log_output.o
LOAD vasyslog.o
LOAD t_perror.o
LOAD strerror.o
LOAD cache.o
LOAD init_tecs.o
LOAD tTask_tecsgen.o
LOAD tSemaphore_tecsgen.o
LOAD tInterruptRequest_tecsgen.o
LOAD tISR_tecsgen.o
LOAD tInitializeRoutine_tecsgen.o
LOAD tTerminateRoutine_tecsgen.o
LOAD tSerialPortMain_tecsgen.o
LOAD tSerialAdapter_tecsgen.o
LOAD tSysLog_tecsgen.o
LOAD tSysLogAdapter_tecsgen.o
LOAD tLogTaskMain_tecsgen.o
LOAD tBannerMain_tecsgen.o
LOAD tPutLogGRPeach_tecsgen.o
LOAD tSCIF_tecsgen.o
LOAD tSIOPortGRPeachMain_tecsgen.o
LOAD tTask.o
LOAD tISR.o
LOAD tInitializeRoutine.o
LOAD tTerminateRoutine.o
LOAD tSerialPortMain.o
LOAD tSerialAdapter.o
LOAD tSysLog.o
LOAD tSysLogAdapter.o
LOAD tLogTaskMain.o
LOAD tBannerMain.o
LOAD tPutLogGRPeach.o
LOAD tSCIF.o
LOAD assert.o
LOAD board.o
LOAD error.o
LOAD gpio.o
LOAD lp_ticker_api.o
LOAD mbed_interface.o
LOAD pinmap_common.o
LOAD rtc_time.o
LOAD semihost_api.o
LOAD ticker_api.o
LOAD us_ticker_api.o
LOAD RZ_A1_Init.o
LOAD cmsis_nvic.o
LOAD gic.o
LOAD mbed_sf_boot.o
LOAD mmu_Renesas_RZ_A1.o
LOAD nvic_wrapper.o
LOAD pl310.o
LOAD rza_io_regrw.o
LOAD system_MBRZA1H.o
LOAD analogin_api.o
LOAD can_api.o
LOAD ethernet_api.o
LOAD gpio_api.o
LOAD gpio_irq_api.o
LOAD i2c_api.o
LOAD pinmap.o
LOAD port_api.o
LOAD pwmout_api.o
LOAD rtc_api.o
LOAD serial_api.o
LOAD spi_api.o
LOAD net_buf.o
LOAD net_count.o
LOAD net_subr.o
LOAD net_timer.o
LOAD in_subr.o
LOAD tinet_cfg.o
LOAD route_cfg.o
LOAD ip_input.o
LOAD ip_output.o
LOAD ip_icmp.o
LOAD tinet_target_config.o
LOAD if.o
LOAD ethernet.o
LOAD if_ether.o
LOAD if_mbed.o
LOAD tcp_input.o
LOAD tcp_output.o
LOAD tcp_timer.o
LOAD tcp_subr.o
LOAD tcp_subr_cs.o
LOAD tcp_subr_ncs.o
LOAD tcp_usrreq.o
LOAD kernel_cfg.o
LOAD .\libkernel.a
LOAD c:/program files (x86)/kpit/gnuarm-nonev16.01-eabi/arm-none-eabi/arm-none-eabi/bin/../lib/gcc/arm-none-eabi/5.2-GNUARM-NONE_v16.01/../../../../arm-none-eabi/lib/armv7-ar/thumb/fpu\libc.a
LOAD c:/program files (x86)/kpit/gnuarm-nonev16.01-eabi/arm-none-eabi/arm-none-eabi/bin/../lib/gcc/arm-none-eabi/5.2-GNUARM-NONE_v16.01/armv7-ar/thumb/fpu\libgcc.a
                [!provide]                PROVIDE (hardware_init_hook, 0x0)
                [!provide]                PROVIDE (software_init_hook, 0x0)
                0x00000000                PROVIDE (software_term_hook, 0x0)
                0x2002027c                PROVIDE (IRQTable, _kernel_inh_table)
                0x200453b0                PROVIDE (IRQNestLevel, _kernel_excpt_nest_count)

.boot           0x18000000     0x3100
 *(.boot_loader)
 .boot_loader   0x18000000     0x3100 mbed_sf_boot.o
                0x18000000                boot_loader

.text           0x18004000    0x29ec3
                0x18004000                Image$$VECTORS$$Base = .
 *(RESET)
                0x18004000                Image$$VECTORS$$Limit = .
                0x18004400                . = (. + 0x400)
 *fill*         0x18004000      0x400 
 *(.isr_vector)
 .isr_vector    0x18004400       0x40 startup_RZ1AH.o
                0x18004400                __isr_vector
 *(SVC_TABLE)
 *(.text*)
 .text          0x18004440      0x36c startup_RZ1AH.o
                0x18004440                Reset_Handler
                0x180045a0                Undef_Handler
                0x18004618                PAbt_Handler
                0x18004654                DAbt_Handler
                0x18004694                FIQ_Handler
                0x18004698                IRQ_Handler
                0x18004774                SVC_Handler
                0x18004776                __user_initial_stackheap
 .text          0x180047ac      0xd98 sample1n.o
                0x180047ac                callback_nblk_tcp
                0x18004838                disconnecting
                0x180048dc                flush_snd_buff
                0x1800493c                put_char
                0x18004a1c                get_char_raw
                0x18004ae4                get_char
                0x18004b6c                net_serial_rea_dat
                0x18004c9c                net_serial_ctl_por
                0x18004cb4                put_num
                0x18004fb0                net_syslog
 .text          0x18005544     0x1384 sample1.o
                0x18005544                task
                0x180058fc                alarm_handler
                0x1800599c                intno1_isr
                0x18005a5c                cpuexc_handler
                0x18005bd8                cyclic_handler
                0x18005c78                exc_task
                0x18005cc0                main_task
 .text          0x180068c8      0x3c4 log_output.o
                0x180069dc                syslog_printf
                0x18006c10                syslog_print
                0x18006c58                syslog_lostmsg
 .text          0x18006c8c      0x258 vasyslog.o
                0x18006c8c                syslog
 .text          0x18006ee4       0x64 t_perror.o
                0x18006ee4                t_perror
 .text          0x18006f48      0x254 strerror.o
                0x18006f48                itron_strerror
 .text          0x1800719c       0xb4 cache.o
                0x1800719c                __v7_all_cache
 .text          0x18007250       0x14 init_tecs.o
                0x18007250                initialize_tecs
 .text          0x18007264        0x0 tTask_tecsgen.o
 .text          0x18007264        0x0 tSemaphore_tecsgen.o
 .text          0x18007264        0x0 tInterruptRequest_tecsgen.o
 .text          0x18007264        0x0 tISR_tecsgen.o
 .text          0x18007264        0x0 tInitializeRoutine_tecsgen.o
 .text          0x18007264        0x0 tTerminateRoutine_tecsgen.o
 .text          0x18007264       0xac tSerialPortMain_tecsgen.o
                0x18007264                tSerialPortMain_eSerialPort_open_skel
                0x18007274                tSerialPortMain_eSerialPort_close_skel
                0x18007284                tSerialPortMain_eSerialPort_read_skel
                0x18007294                tSerialPortMain_eSerialPort_write_skel
                0x180072a4                tSerialPortMain_eSerialPort_control_skel
                0x180072b4                tSerialPortMain_eSerialPort_refer_skel
                0x180072c4                tSerialPortMain_CB_initialize
 .text          0x18007310        0x0 tSerialAdapter_tecsgen.o
 .text          0x18007310       0x3c tSysLog_tecsgen.o
                0x18007310                tSysLog_CB_initialize
 .text          0x1800734c        0x0 tSysLogAdapter_tecsgen.o
 .text          0x1800734c        0x0 tLogTaskMain_tecsgen.o
 .text          0x1800734c        0x0 tBannerMain_tecsgen.o
 .text          0x1800734c        0x0 tPutLogGRPeach_tecsgen.o
 .text          0x1800734c       0x68 tSCIF_tecsgen.o
                0x1800734c                tSCIF_eiRxISR_main_skel
                0x1800735c                tSCIF_eiTxISR_main_skel
                0x1800736c                tSCIF_CB_initialize
 .text          0x180073b4        0x0 tSIOPortGRPeachMain_tecsgen.o
 .text          0x180073b4        0xc tTask.o
                0x180073b4                tTask_start
 .text          0x180073c0       0x18 tISR.o
                0x180073c0                tISR_start
 .text          0x180073d8        0xc tInitializeRoutine.o
                0x180073d8                tInitializeRoutine_start
 .text          0x180073e4        0xc tTerminateRoutine.o
                0x180073e4                tTerminateRoutine_start
 .text          0x180073f0      0xabc tSerialPortMain.o
                0x18007650                tSerialPortMain_eSerialPort_open
                0x1800775c                tSerialPortMain_eSerialPort_close
                0x18007850                tSerialPortMain_eSerialPort_write
                0x18007944                tSerialPortMain_eSerialPort_read
                0x18007ac0                tSerialPortMain_eSerialPort_control
                0x18007b10                tSerialPortMain_eSerialPort_refer
                0x18007b6c                tSerialPortMain_eiSIOCBR_readySend
                0x18007c40                tSerialPortMain_eiSIOCBR_readyReceive
                0x18007e40                tSerialPortMain_enSerialPortManage_getChar
 .text          0x18007eac      0x2b8 tSerialAdapter.o
                0x18007eac                serial_opn_por
                0x18007f18                serial_cls_por
                0x18007f84                serial_rea_dat
                0x18008000                serial_wri_dat
                0x1800807c                serial_ctl_por
                0x180080f0                serial_ref_por
 .text          0x18008164      0x320 tSysLog.o
                0x18008170                tSysLog_eSysLog_write
                0x180082cc                tSysLog_eSysLog_read
                0x18008384                tSysLog_eSysLog_mask
                0x180083b8                tSysLog_eSysLog_refer
                0x18008404                tSysLog_eSysLog_flush
 .text          0x18008484       0x3c tSysLogAdapter.o
                0x18008484                syslog_wri_log
                0x18008490                syslog_rea_log
                0x1800849c                syslog_msk_log
                0x180084a8                syslog_ref_log
                0x180084b4                syslog_fls_log
 .text          0x180084c0      0x25c tLogTaskMain.o
                0x180084f4                tLogTaskMain_eLogTask_flush
                0x180085ac                tLogTaskMain_eLogTaskBody_main
                0x18008660                tLogTaskMain_eLogTaskTerminate_main
 .text          0x1800871c       0x5c tBannerMain.o
                0x1800871c                tBannerMain_eBannerInitialize_main
 .text          0x18008778       0x7c tPutLogGRPeach.o
                0x18008778                tPutLogGRPeach_initialize
                0x180087a4                tPutLogGRPeach_ePutLog_putChar
 .text          0x180087f4      0x384 tSCIF.o
                0x180087f4                tSCIF_eSIOPort_open
                0x18008940                tSCIF_eSIOPort_close
                0x18008954                tSCIF_eSIOPort_putChar
                0x1800898c                tSCIF_eSIOPort_getChar
                0x18008a6c                tSCIF_eSIOPort_enableCBR
                0x18008a98                tSCIF_eSIOPort_disableCBR
                0x18008ae0                tSCIF_eiRxISR_main
                0x18008b48                tSCIF_eiTxISR_main
 .text          0x18008b78       0x28 assert.o
                0x18008b78                mbed_assert_internal
 .text          0x18008ba0       0xd8 board.o
                0x18008ba0                mbed_die
 .text          0x18008c78       0x34 error.o
                0x18008c78                error
 .text          0x18008cac      0x15c gpio.o
                0x18008cac                gpio_init_in_ex
                0x18008ce4                gpio_init_in
                0x18008cf4                gpio_init_out_ex
                0x18008d48                gpio_init_out
                0x18008d58                gpio_init_inout
 .text          0x18008e08        0x0 lp_ticker_api.o
 .text          0x18008e08       0x2c mbed_interface.o
                0x18008e08                mbed_mac_address
 .text          0x18008e34      0x170 pinmap_common.o
                0x18008e34                pinmap_pinout
                0x18008e94                pinmap_merge
                0x18008ecc                pinmap_find_peripheral
                0x18008f00                pinmap_peripheral
                0x18008f38                pinmap_find_function
                0x18008f6c                pinmap_function
 .text          0x18008fa4       0xdc rtc_time.o
                0x18008fa4                set_time
                0x18008fe4                time
                0x1800903c                clock
                0x18009058                attach_rtc
 .text          0x18009080        0x0 semihost_api.o
 .text          0x18009080      0x1f4 ticker_api.o
                0x18009080                ticker_set_handler
                0x180090a4                ticker_irq_handler
                0x1800913c                ticker_insert_event
                0x180091b4                ticker_remove_event
                0x18009234                ticker_read
                0x18009248                ticker_get_next_timestamp
 .text          0x18009274       0x20 us_ticker_api.o
                0x18009274                get_us_ticker_data
                0x18009280                us_ticker_irq_handler
 .text          0x18009294       0x4c RZ_A1_Init.o
                0x18009294                RZ_A1_SetSramWriteEnable
                0x180092a8                RZ_A1_InitClock
                0x180092d4                RZ_A1_IsClockMode0
                0x180092dc                RZ_A1_InitBus
 .text          0x180092e0       0x1c cmsis_nvic.o
                0x180092e0                NVIC_SetVector
                0x180092ec                NVIC_GetVector
 .text          0x180092fc      0x554 gic.o
                0x180092fc                GIC_EnableDistributor
                0x18009314                GIC_DisableDistributor
                0x1800932c                GIC_DistributorInfo
                0x1800933c                GIC_DistributorImplementer
                0x1800934c                GIC_SetTarget
                0x18009370                GIC_SetICDICFR
                0x180093b8                GIC_GetTarget
                0x180093dc                GIC_EnableInterface
                0x180093f4                GIC_DisableInterface
                0x1800940c                GIC_AcknowledgePending
                0x18009420                GIC_EndInterrupt
                0x18009430                GIC_EnableIRQ
                0x18009454                GIC_DisableIRQ
                0x18009478                GIC_SetPendingIRQ
                0x1800949c                GIC_ClearPendingIRQ
                0x180094c0                GIC_SetLevelModel
                0x1800950c                GIC_SetPriority
                0x18009530                GIC_GetPriority
                0x18009550                GIC_InterfacePriorityMask
                0x18009564                GIC_SetBinaryPoint
                0x18009578                GIC_GetBinaryPoint
                0x18009588                GIC_GetIRQStatus
                0x180095c0                GIC_SendSGI
                0x180095e8                GIC_DistInit
                0x180097dc                GIC_CPUInterfaceInit
                0x18009840                GIC_Enable
 .text          0x18009850        0x0 mbed_sf_boot.o
 .text          0x18009850     0x1e2c mmu_Renesas_RZ_A1.o
                0x18009914                create_translation_table
 .text          0x1800b67c      0x180 nvic_wrapper.o
                0x1800b67c                NVIC_SetPriorityGrouping
                0x1800b688                NVIC_GetPriorityGrouping
                0x1800b698                NVIC_EnableIRQ
                0x1800b6a4                NVIC_DisableIRQ
                0x1800b6b0                NVIC_GetPendingIRQ
                0x1800b6c0                NVIC_SetPendingIRQ
                0x1800b6cc                NVIC_ClearPendingIRQ
                0x1800b6d8                NVIC_GetActive
                0x1800b6e8                NVIC_SetPriority
                0x1800b6f8                NVIC_GetPriority
                0x1800b708                NVIC_EncodePriority
                0x1800b748                NVIC_DecodePriority
                0x1800b794                NVIC_SystemReset
                0x1800b7e0                SysTick_Config
                0x1800b7e8                ITM_SendChar
                0x1800b7ec                ITM_ReceiveChar
                0x1800b7f4                ITM_CheckChar
 .text          0x1800b7fc      0x128 pl310.o
                0x1800b7fc                PL310_Sync
                0x1800b80c                PL310_GetID
                0x1800b818                PL310_GetType
                0x1800b824                PL310_InvAllByWay
                0x1800b860                PL310_CleanInvAllByWay
                0x1800b89c                PL310_Enable
                0x1800b8d0                PL310_Disable
                0x1800b8e8                PL310_InvPa
                0x1800b8fc                PL310_CleanPa
                0x1800b910                PL310_CleanInvPa
 .text          0x1800b924       0x7c rza_io_regrw.o
                0x1800b924                RZA_IO_RegWrite_8
                0x1800b93c                RZA_IO_RegWrite_16
                0x1800b954                RZA_IO_RegWrite_32
                0x1800b968                RZA_IO_RegRead_8
                0x1800b97c                RZA_IO_RegRead_16
                0x1800b990                RZA_IO_RegRead_32
 .text          0x1800b9a0      0x2c4 system_MBRZA1H.o
                0x1800b9a0                InitMemorySubsystem
                0x1800ba24                InterruptHandlerRegister
                0x1800ba4c                InterruptHandlerUnregister
                0x1800ba78                SystemInit
                0x1800baa0                CDAbtHandler
                0x1800bad0                CPAbtHandler
                0x1800bb00                FPUEnable
                0x1800bbb4                CUndefHandler
 .text          0x1800bc64      0x1ec analogin_api.o
                0x1800bc64                analogin_init
                0x1800bcec                analogin_read_u16
                0x1800bd98                analogin_read
 .text          0x1800be50     0x10c0 can_api.o
                0x1800c5cc                can_irq_init
                0x1800c5e8                can_irq_free
                0x1800c604                can_irq_set
                0x1800c704                can_init
                0x1800c81c                can_free
                0x1800c834                can_frequency
                0x1800c884                can_reset
                0x1800c8b0                can_write
                0x1800ca00                can_read
                0x1800cb08                can_rderror
                0x1800cb28                can_tderror
                0x1800cb48                can_mode
                0x1800cda8                can_filter
                0x1800ce88                can_monitor
 .text          0x1800cf10      0xed0 ethernet_api.o
                0x1800d528                ethernetext_start_stop
                0x1800d598                ethernetext_chk_link_mode
                0x1800d620                ethernetext_set_link_mode
                0x1800d63c                ethernet_free
                0x1800d66c                ethernet_write
                0x1800d730                ethernet_send
                0x1800d808                ethernet_receive
                0x1800d970                ethernet_read
                0x1800d9f4                ethernet_address
                0x1800da08                ethernetext_init
                0x1800dc94                ethernet_link
                0x1800dcb4                ethernet_set_link
                0x1800dd38                ethernet_init
                0x1800dd74                INT_Ether
 .text          0x1800dde0      0x100 gpio_api.o
                0x1800dde0                gpio_set
                0x1800de00                gpio_init
                0x1800de78                gpio_mode
                0x1800de7c                gpio_dir
 .text          0x1800dee0      0x3d0 gpio_irq_api.o
                0x1800e04c                gpio_irq_init
                0x1800e140                gpio_irq_free
                0x1800e158                gpio_irq_set
                0x1800e244                gpio_irq_enable
                0x1800e28c                gpio_irq_disable
 .text          0x1800e2b0     0x1258 i2c_api.o
                0x1800e5e8                i2c_start
                0x1800e630                i2c_stop
                0x1800e654                i2c_frequency
                0x1800e8b8                i2c_init
                0x1800e9f0                i2c_read
                0x1800ee50                i2c_write
                0x1800f08c                i2c_reset
                0x1800f0ac                i2c_byte_read
                0x1800f164                i2c_byte_write
                0x1800f244                i2c_slave_mode
                0x1800f26c                i2c_slave_receive
                0x1800f2c4                i2c_slave_read
                0x1800f3ec                i2c_slave_write
                0x1800f4e8                i2c_slave_address
 .text          0x1800f508      0x224 pinmap.o
                0x1800f508                pin_function
                0x1800f728                pin_mode
 .text          0x1800f72c      0x124 port_api.o
                0x1800f72c                port_pin
                0x1800f734                port_mode
                0x1800f77c                port_dir
                0x1800f7c0                port_init
                0x1800f818                port_write
                0x1800f83c                port_read
 .text          0x1800f850      0xa2c pwmout_api.o
                0x1800f8d4                pwmout_write
                0x1800f9d8                pwmout_free
                0x1800f9ec                pwmout_read
                0x1800faa8                pwmout_period_us
                0x1800ff04                pwmout_init
                0x18010180                pwmout_period
                0x180101a0                pwmout_period_ms
                0x180101b4                pwmout_pulsewidth_us
                0x18010248                pwmout_pulsewidth
                0x18010268                pwmout_pulsewidth_ms
 .text          0x1801027c      0x59c rtc_api.o
                0x1801044c                rtc_init
                0x18010520                rtc_free
                0x180105ec                rtc_isenabled
                0x1801060c                rtc_read
                0x18010704                rtc_write
 .text          0x18010818      0xc90 serial_api.o
                0x18010a94                serial_free
                0x18010ab4                serial_baud
                0x18010d78                serial_format
                0x18010e4c                serial_init
                0x18011160                serial_irq_handler
                0x18011180                serial_irq_set
                0x180111ac                serial_readable
                0x180111c8                serial_getc
                0x18011280                serial_writable
                0x1801129c                serial_putc
                0x18011340                serial_clear
                0x18011390                serial_pinout_tx
                0x180113a4                serial_break_set
                0x180113e4                serial_break_clear
                0x1801141c                serial_set_flow_control
 .text          0x180114a8      0x48c spi_api.o
                0x180114a8                spi_init
                0x18011684                spi_free
                0x18011688                spi_format
                0x18011760                spi_frequency
                0x18011830                spi_master_write
                0x18011898                spi_slave_read
                0x180118cc                spi_slave_write
                0x18011900                spi_busy
                0x18011908                spi_slave_receive
 .text          0x18011934      0x4d0 net_buf.o
                0x18011bb0                _tinet_nbuf_get_tbl
                0x18011bbc                _tinet_nbuf_get_tbl_size
                0x18011bc4                _tinet_tget_net_buf_ex
                0x18011cb0                _tinet_tget_net_buf
                0x18011cdc                _tinet_rel_net_buf
                0x18011d64                _tinet_rus_net_buf
                0x18011db4                _tinet_net_buf_siz
                0x18011df4                _tinet_net_buf_max_siz
 .text          0x18011e04        0x0 net_count.o
 .text          0x18011e04      0x2b0 net_subr.o
                0x18011e04                _tinet_net_rand
                0x18011e30                _tinet_net_srand
                0x18011e48                _tinet_convert_hexdigit
                0x18011f08                mac2str
                0x1801204c                _tinet_rev_memcpy_word
                0x18012070                _tinet_rev_memcmp_word
 .text          0x180120b4      0x294 net_timer.o
                0x180120b4                _tinet_timeout
                0x18012150                _tinet_untimeout
                0x180121f0                net_timer_task
                0x180122d0                net_timer_handler
 .text          0x18012348      0xa84 in_subr.o
                0x18012348                in4_get_ifaddr
                0x18012358                ip2str
                0x18012450                _tinet_in4_set_header
                0x18012548                _tinet_in4_get_datagram
                0x18012604                _tinet_in4_is_dstaddr_accept
                0x1801267c                _tinet_in4_ifawithifp
                0x18012684                in4_add_ifaddr
                0x180126a4                in4_add_route
                0x180126f0                _tinet_in4_rtalloc
                0x1801276c                _tinet_in_rtinit
                0x180127c8                _tinet_in4_init
                0x180127e8                _tinet_in_rtnewentry
                0x18012908                _tinet_in4_rtredirect
                0x18012934                _tinet_in_rttimer
                0x180129f0                _tinet_in_cksum_sum
                0x18012a24                _tinet_in_cksum_carry
                0x18012a3c                _tinet_in4_cksum
                0x18012ac0                _tinet_in_cksum
                0x18012ae4                in_strtfn
 .text          0x18012dcc        0x0 tinet_cfg.o
 .text          0x18012dcc        0x0 route_cfg.o
 .text          0x18012dcc      0x84c ip_input.o
                0x180131f0                _tinet_ip_get_frag_queue
                0x180131fc                _tinet_ip_frag_timer
                0x18013288                _tinet_ip_init
                0x18013294                _tinet_ip_remove_options
                0x180132d8                _tinet_ip_input
 .text          0x18013618      0x338 ip_output.o
                0x18013618                _tinet_ip_output
 .text          0x18013950      0x4d8 ip_icmp.o
                0x18013b18                _tinet_icmp_input
                0x18013cc8                _tinet_icmp_error
 .text          0x18013e28        0x8 tinet_target_config.o
                0x18013e28                mbed_bus_init
                0x18013e2c                mbed_inter_init
 .text          0x18013e30       0x60 if.o
                0x18013e74                _tinet_ifinit
 .text          0x18013e90      0x36c ethernet.o
                0x18013e90                _tinet_ether_get_ifnet
                0x18013e9c                ether_set_link_up
                0x18013ec8                ether_set_link_down
                0x18013ef4                ether_set_link_callback
                0x18013f04                _tinet_ether_raw_output
                0x18013f68                _tinet_ether_output
                0x18014044                _tinet_ether_output_task
                0x180140f8                _tinet_ether_input_task
 .text          0x180141fc      0x6f8 if_ether.o
                0x180145c8                _tinet_arp_request
                0x180146f0                _tinet_arp_get_cache
                0x180146fc                _tinet_arp_input
                0x18014794                _tinet_arp_resolve
                0x180148a4                _tinet_arp_init
                0x180148c4                _tinet_ether_map_ipv4_multicast
 .text          0x180148f4      0x294 if_mbed.o
                0x1801494c                if_mbed_reset
                0x1801498c                if_mbed_get_softc
                0x18014998                if_mbed_watchdog
                0x180149a4                if_mbed_probe
                0x180149b0                if_mbed_init
                0x180149e4                if_mbed_phy_task
                0x18014a88                if_mbed_read
                0x18014b1c                if_mbed_start
                0x18014b58                if_mbed_eth_handler
 .text          0x18014b88     0x1b68 tcp_input.o
                0x18015ba4                _tinet_tcp_move_twcep
                0x18015d50                _tinet_tcp_input
 .text          0x180166f0      0x9c4 tcp_output.o
                0x18016ee0                tcp_output_task
 .text          0x180170b4      0x5a8 tcp_timer.o
                0x180170b4                _tinet_tcp_fast_timo
                0x18017254                _tinet_tcp_cancel_timers
                0x18017280                _tinet_tcp_range_set
                0x180172a8                _tinet_tcp_set_persist_timer
                0x18017550                _tinet_tcp_slow_timo
 .text          0x1801765c     0x1370 tcp_subr.o
                0x1801765c                _tinet_tcp_free_reassq
                0x180176b0                _tinet_tcp_alloc_auto_port
                0x180177b8                _tinet_tcp_alloc_port
                0x1801783c                _tinet_tcp_init
                0x1801786c                _tinet_tcp_init_iss
                0x180178c4                _tinet_tcp_close
                0x18017c70                _tinet_tcp_drop
                0x18017cb8                _tinet_tcp_set_header
                0x18017d08                _tinet_tcp_get_segment
                0x18017dcc                _tinet_tcp_respond
                0x18017f8c                _tinet_tcp_can_send_more
                0x18018098                _tinet_tcp_can_recv_more
                0x180181d8                _tinet_tcp_wait_rwbuf
                0x180182a4                _tinet_tcp_move_ra2rw
                0x18018334                _tinet_tcp_write_raque
                0x180185ec                _tinet_tcp_rexmt_val
                0x1801860c                _tinet_tcp_init_cep
                0x1801869c                _tinet_tcp_find_cep
                0x180187b0                _tinet_tcp_notify
                0x18018854                _tinet_tcp_lock_cep
 .text          0x180189cc        0x0 tcp_subr_cs.o
 .text          0x180189cc      0xa44 tcp_subr_ncs.o
                0x180189cc                _tinet_tcp_read_swbuf_ncs
                0x18018af8                _tinet_tcp_write_swbuf_ncs
                0x18018ba8                _tinet_tcp_drop_swbuf_ncs
                0x18018de4                _tinet_tcp_wait_swbuf_ncs
                0x18018e80                _tinet_tcp_get_swbuf_addr_ncs
                0x18018ed4                _tinet_tcp_send_swbuf_ncs
                0x18018f40                _tinet_tcp_is_swbuf_full_ncs
                0x18018f58                _tinet_tcp_drop_rwbuf_ncs
                0x18018f88                _tinet_tcp_read_rwbuf_ncs
                0x18019034                _tinet_tcp_get_rwbuf_addr_ncs
                0x18019080                _tinet_tcp_write_rwbuf_ncs
 .text          0x18019410     0x1120 tcp_usrreq.o
                0x18019680                tcp_acp_cep
                0x180197fc                tcp_con_cep
                0x18019a44                _tinet_tcp_user_closed
                0x18019ac0                tcp_cls_cep
                0x18019cb8                tcp_sht_cep
                0x18019d38                tcp_snd_dat
                0x18019ebc                tcp_get_buf
                0x18019fe0                tcp_snd_buf
                0x1801a098                tcp_rcv_dat
                0x1801a1ec                tcp_rcv_buf
                0x1801a308                tcp_rel_buf
                0x1801a3b4                tcp_can_cep
 .text          0x1801a530       0x98 kernel_cfg.o
                0x1801a530                _kernel_inthdr_37
                0x1801a544                _kernel_inthdr_231
                0x1801a558                _kernel_inthdr_232
                0x1801a56c                _kernel_initialize_object
                0x1801a598                _kernel_call_inirtn
                0x1801a5b0                _kernel_call_terrtn
 *fill*         0x1801a5c8       0x38 
 .text          0x1801a600      0x500 .\libkernel.a(core_support.o)
                0x1801a600                _kernel_dispatch
                0x1801a62c                _kernel_start_dispatch
                0x1801a654                _kernel_exit_and_dispatch
                0x1801a680                _kernel_call_exit_kernel
                0x1801a690                _kernel_start_r
                0x1801a6a8                _kernel_irq_handler
                0x1801a77c                _kernel_undef_handler
                0x1801a790                _kernel_svc_handler
                0x1801a7a4                _kernel_pabort_handler
                0x1801a7b8                _kernel_dabort_handler
                0x1801a818                _kernel_fiq_handler
                0x1801aa00                sil_dly_nse
 .text          0x1801ab00      0x410 .\libkernel.a(target_kernel_impl.o)
                0x1801ae00                _kernel_target_exit
                0x1801ae10                gr_peach_set_led
                0x1801ae58                _kernel_target_initialize
                0x1801ae78                us_ticker_init
                0x1801ae7c                us_ticker_read
                0x1801aea0                us_ticker_set_interrupt
                0x1801aea8                us_ticker_disable_interrupt
                0x1801aeac                us_ticker_clear_interrupt
                0x1801aeb0                wait_us
                0x1801aee0                wait
                0x1801aefc                wait_ms
 .text          0x1801af10      0x2f8 .\libkernel.a(chip_kernel_impl.o)
                0x1801af10                _kernel_chip_initialize
                0x1801af50                _kernel_chip_terminate
                0x1801af8c                _kernel_initialize_interrupt
 .text          0x1801b208      0x164 .\libkernel.a(gic_kernel_impl.o)
                0x1801b208                _kernel_gicc_initialize
                0x1801b238                _kernel_gicc_terminate
                0x1801b24c                _kernel_gicd_initialize
                0x1801b358                _kernel_gicd_terminate
 .text          0x1801b36c       0xd4 .\libkernel.a(chip_timer.o)
                0x1801b36c                _kernel_target_hrt_initialize
                0x1801b3a0                _kernel_target_hrt_terminate
                0x1801b3c4                _kernel_target_hrt_set_event
                0x1801b410                _kernel_target_hrt_raise_event
                0x1801b424                _kernel_target_hrt_handler
 .text          0x1801b440      0x480 .\libkernel.a(core_kernel_impl.o)
                0x1801b440                _kernel_arm_mmu_initialize
                0x1801b574                _kernel_core_initialize
                0x1801b590                _kernel_core_terminate
                0x1801b594                _kernel_xlog_sys
                0x1801b650                _kernel_xlog_fsr
                0x1801b744                _kernel_default_int_handler
                0x1801b778                _kernel_default_exc_handler
 .text          0x1801b8c0      0x158 .\libkernel.a(arm.o)
                0x1801b8c0                arm_enable_icache
                0x1801b8e0                arm_disable_icache
                0x1801b8f8                armv7_invalidate_dcache
                0x1801b964                arm_enable_dcache
                0x1801b984                armv7_clean_and_invalidate_dcache
                0x1801b9f0                arm_disable_dcache
 .text          0x1801ba18      0x120 .\libkernel.a(startup.o)
                0x1801ba18                ext_ker
                0x1801ba38                _kernel_exit_kernel
                0x1801ba44                _kernel_initialize_kmm
                0x1801ba70                sta_ker
                0x1801bafc                _kernel_kernel_malloc
                0x1801bb34                _kernel_kernel_free
 .text          0x1801bb38      0x83c .\libkernel.a(task.o)
                0x1801bb38                _kernel_search_schedtsk
                0x1801bb5c                _kernel_make_runnable
                0x1801bbe0                _kernel_make_non_runnable
                0x1801bd9c                _kernel_make_dormant
                0x1801bdcc                _kernel_make_active
                0x1801be00                _kernel_initialize_task
                0x1801bf64                _kernel_change_priority
                0x1801c1a0                _kernel_rotate_ready_queue
                0x1801c2d0                _kernel_task_terminate
 .text          0x1801c374        0x0 .\libkernel.a(taskhook.o)
 .text          0x1801c374      0x6c0 .\libkernel.a(time_event.o)
                0x1801c374                _kernel_initialize_tmevt
                0x1801c3d4                _kernel_tmevt_up
                0x1801c43c                _kernel_tmevt_down
                0x1801c4d0                _kernel_update_current_evttim
                0x1801c5c0                _kernel_set_hrt_event
                0x1801c648                _kernel_tmevtb_register
                0x1801c678                _kernel_tmevtb_enqueue
                0x1801c6f0                _kernel_tmevtb_dequeue
                0x1801c7c4                _kernel_check_adjtim
                0x1801c874                _kernel_tmevt_lefttim
                0x1801c8b8                _kernel_signal_time
 .text          0x1801ca34      0x8a0 .\libkernel.a(task_manage.o)
                0x1801ca34                acre_tsk
                0x1801cc84                del_tsk
                0x1801cd78                act_tsk
                0x1801ce90                can_act
                0x1801cf3c                get_tst
                0x1801d038                chg_pri
                0x1801d1c0                get_pri
                0x1801d27c                get_inf
 .text          0x1801d2d4      0x838 .\libkernel.a(task_sync.o)
                0x1801d2d4                slp_tsk
                0x1801d3a4                tslp_tsk
                0x1801d494                wup_tsk
                0x1801d5b0                can_wup
                0x1801d66c                rel_wai
                0x1801d7ec                sus_tsk
                0x1801d934                rsm_tsk
                0x1801da24                dly_tsk
 .text          0x1801db0c      0x44c .\libkernel.a(task_term.o)
                0x1801db0c                ext_tsk
                0x1801dbc8                ras_ter
                0x1801dd68                dis_ter
                0x1801ddc0                ena_ter
                0x1801de44                sns_ter
                0x1801de68                ter_tsk
 .text          0x1801df58      0xa28 .\libkernel.a(semaphore.o)
                0x1801df58                _kernel_initialize_semaphore
                0x1801e02c                acre_sem
                0x1801e1e8                del_sem
                0x1801e2f0                sig_sem
                0x1801e498                wai_sem
                0x1801e59c                pol_sem
                0x1801e640                twai_sem
                0x1801e77c                ini_sem
                0x1801e850                ref_sem
 .text          0x1801e980      0xce8 .\libkernel.a(eventflag.o)
                0x1801e980                _kernel_initialize_eventflag
                0x1801ea4c                _kernel_check_flg_cond
                0x1801eabc                acre_flg
                0x1801ec54                del_flg
                0x1801ed5c                set_flg
                0x1801ee8c                clr_flg
                0x1801ef24                wai_flg
                0x1801f0f4                pol_flg
                0x1801f254                twai_flg
                0x1801f464                ini_flg
                0x1801f538                ref_flg
 .text          0x1801f668     0x13a4 .\libkernel.a(dataqueue.o)
                0x1801f668                _kernel_initialize_dataqueue
                0x1801f750                _kernel_enqueue_data
                0x1801f790                _kernel_force_enqueue_data
                0x1801f7e0                _kernel_dequeue_data
                0x1801f824                _kernel_send_data
                0x1801f940                _kernel_force_send_data
                0x1801fa38                _kernel_receive_data
                0x1801fc20                acre_dtq
                0x1801fe10                del_dtq
                0x1801ff34                snd_dtq
                0x18020078                psnd_dtq
                0x18020144                tsnd_dtq
                0x180202c4                fsnd_dtq
                0x1802038c                rcv_dtq
                0x18020500                prcv_dtq
                0x180205d0                trcv_dtq
                0x18020774                ini_dtq
                0x18020854                ref_dtq
 .text          0x18020a0c      0xc74 .\libkernel.a(mempfix.o)
                0x18020a0c                _kernel_initialize_mempfix
                0x18020af8                _kernel_get_mpf_block
                0x18020b50                acre_mpf
                0x18020de0                del_mpf
                0x18020f18                get_mpf
                0x1802102c                pget_mpf
                0x180210dc                tget_mpf
                0x1802122c                rel_mpf
                0x18021460                ini_mpf
                0x18021548                ref_mpf
 .text          0x18021680      0x718 .\libkernel.a(time_manage.o)
                0x18021680                set_tim
                0x180216f0                get_tim
                0x18021760                adj_tim
                0x18021844                fch_hrt
                0x180218b0                _kernel_check_nfyinfo
                0x18021c10                _kernel_notify_handler
 .text          0x18021d98      0x770 .\libkernel.a(cyclic.o)
                0x18021d98                _kernel_call_cyclic
                0x18021de0                _kernel_initialize_cyclic
                0x18021ef8                acre_cyc
                0x180221a8                del_cyc
                0x180222a8                sta_cyc
                0x18022378                stp_cyc
                0x18022438                ref_cyc
 .text          0x18022508      0x6ac .\libkernel.a(alarm.o)
                0x18022508                _kernel_call_alarm
                0x1802253c                _kernel_initialize_alarm
                0x18022634                acre_alm
                0x18022874                del_alm
                0x18022974                sta_alm
                0x18022a40                stp_alm
                0x18022ae4                ref_alm
 .text          0x18022bb4      0x44c .\libkernel.a(sys_manage.o)
                0x18022bb4                rot_rdq
                0x18022c6c                get_tid
                0x18022cbc                get_lod
                0x18022d5c                get_nth
                0x18022e1c                loc_cpu
                0x18022e34                unl_cpu
                0x18022e4c                dis_dsp
                0x18022ea8                ena_dsp
                0x18022f64                sns_ctx
                0x18022f7c                sns_loc
                0x18022f88                sns_dsp
                0x18022fa0                sns_dpn
                0x18022fe8                sns_ker
 .text          0x18023000      0x798 .\libkernel.a(interrupt.o)
                0x18023000                _kernel_initialize_isr
                0x18023154                _kernel_call_isr
                0x180231a0                acre_isr
                0x1802346c                del_isr
                0x18023560                dis_int
                0x180235d8                ena_int
                0x18023650                chg_ipm
                0x18023740                get_ipm
 .text          0x18023798       0x94 .\libkernel.a(exception.o)
                0x18023798                xsns_dpn
 .text          0x1802382c       0x8c .\libkernel.a(gic_support.o)
                0x1802382c                _kernel_irc_begin_int
                0x18023864                _kernel_irc_end_int
                0x18023874                _kernel_irc_get_intpri
                0x18023888                _kernel_irc_begin_exc
                0x18023898                _kernel_irc_end_exc
 .text          0x180238b8      0x558 .\libkernel.a(wait.o)
                0x180238b8                _kernel_wait_tmout
                0x18023970                _kernel_make_wait_tmout
                0x18023a28                _kernel_wait_complete
                0x18023ac8                _kernel_wait_tmout_ok
                0x18023b5c                _kernel_wobj_make_wait
                0x18023c0c                _kernel_wobj_make_wait_tmout
                0x18023cb4                _kernel_init_wait_queue
 .text          0x18023e10       0x20 c:/program files (x86)/kpit/gnuarm-nonev16.01-eabi/arm-none-eabi/arm-none-eabi/bin/../lib/gcc/arm-none-eabi/5.2-GNUARM-NONE_v16.01/../../../../arm-none-eabi/lib/armv7-ar/thumb/fpu\libc.a(lib_a-exit.o)
                0x18023e10                exit
 .text          0x18023e30        0x0 c:/program files (x86)/kpit/gnuarm-nonev16.01-eabi/arm-none-eabi/arm-none-eabi/bin/../lib/gcc/arm-none-eabi/5.2-GNUARM-NONE_v16.01/../../../../arm-none-eabi/lib/armv7-ar/thumb/fpu\libc.a(lib_a-impure.o)
 .text          0x18023e30       0x10 c:/program files (x86)/kpit/gnuarm-nonev16.01-eabi/arm-none-eabi/arm-none-eabi/bin/../lib/gcc/arm-none-eabi/5.2-GNUARM-NONE_v16.01/../../../../arm-none-eabi/lib/armv7-ar/thumb/fpu\libc.a(lib_a-lcltime.o)
                0x18023e30                localtime
 .text          0x18023e40      0x1d4 c:/program files (x86)/kpit/gnuarm-nonev16.01-eabi/arm-none-eabi/arm-none-eabi/bin/../lib/gcc/arm-none-eabi/5.2-GNUARM-NONE_v16.01/../../../../arm-none-eabi/lib/armv7-ar/thumb/fpu\libc.a(lib_a-lcltime_r.o)
                0x18023e40                localtime_r
 .text          0x18024014       0x1e c:/program files (x86)/kpit/gnuarm-nonev16.01-eabi/arm-none-eabi/arm-none-eabi/bin/../lib/gcc/arm-none-eabi/5.2-GNUARM-NONE_v16.01/../../../../arm-none-eabi/lib/armv7-ar/thumb/fpu\libc.a(lib_a-memcmp.o)
                0x18024014                memcmp
 .text          0x18024032       0x16 c:/program files (x86)/kpit/gnuarm-nonev16.01-eabi/arm-none-eabi/arm-none-eabi/bin/../lib/gcc/arm-none-eabi/5.2-GNUARM-NONE_v16.01/../../../../arm-none-eabi/lib/armv7-ar/thumb/fpu\libc.a(lib_a-memcpy-stub.o)
                0x18024032                memcpy
 .text          0x18024048       0x36 c:/program files (x86)/kpit/gnuarm-nonev16.01-eabi/arm-none-eabi/arm-none-eabi/bin/../lib/gcc/arm-none-eabi/5.2-GNUARM-NONE_v16.01/../../../../arm-none-eabi/lib/armv7-ar/thumb/fpu\libc.a(lib_a-memmove.o)
                0x18024048                memmove
 .text          0x1802407e       0x10 c:/program files (x86)/kpit/gnuarm-nonev16.01-eabi/arm-none-eabi/arm-none-eabi/bin/../lib/gcc/arm-none-eabi/5.2-GNUARM-NONE_v16.01/../../../../arm-none-eabi/lib/armv7-ar/thumb/fpu\libc.a(lib_a-memset.o)
                0x1802407e                memset
 *fill*         0x1802408e        0x2 
 .text          0x18024090      0x45c c:/program files (x86)/kpit/gnuarm-nonev16.01-eabi/arm-none-eabi/arm-none-eabi/bin/../lib/gcc/arm-none-eabi/5.2-GNUARM-NONE_v16.01/../../../../arm-none-eabi/lib/armv7-ar/thumb/fpu\libc.a(lib_a-mktime.o)
                0x18024238                mktime
 .text          0x180244ec        0x0 c:/program files (x86)/kpit/gnuarm-nonev16.01-eabi/arm-none-eabi/arm-none-eabi/bin/../lib/gcc/arm-none-eabi/5.2-GNUARM-NONE_v16.01/../../../../arm-none-eabi/lib/armv7-ar/thumb/fpu\libc.a(lib_a-month_lengths.o)
 .text          0x180244ec      0x528 c:/program files (x86)/kpit/gnuarm-nonev16.01-eabi/arm-none-eabi/arm-none-eabi/bin/../lib/gcc/arm-none-eabi/5.2-GNUARM-NONE_v16.01/../../../../arm-none-eabi/lib/armv7-ar/thumb/fpu\libc.a(lib_a-syscalls.o)
                0x18024580                initialise_monitor_handles
                0x180245f4                _swiread
                0x18024618                _read
                0x1802465c                _swilseek
                0x180246dc                _lseek
                0x180246ee                _swiwrite
                0x18024712                _write
                0x1802475c                _swiopen
                0x180247e0                _open
                0x180247fa                _swiclose
                0x1802482c                _close
                0x1802483e                _kill
                0x18024860                _exit
                0x18024868                _getpid
                0x1802486c                _sbrk
                0x180248a8                _fstat
                0x180248c6                _stat
                0x180248fa                _link
                0x18024900                _unlink
                0x1802492e                _raise
                0x18024930                _gettimeofday
                0x18024954                _times
                0x18024972                _isatty
                0x18024998                _system
                0x180249d8                _rename
 .text          0x18024a14      0x154 c:/program files (x86)/kpit/gnuarm-nonev16.01-eabi/arm-none-eabi/arm-none-eabi/bin/../lib/gcc/arm-none-eabi/5.2-GNUARM-NONE_v16.01/../../../../arm-none-eabi/lib/armv7-ar/thumb/fpu\libc.a(lib_a-tzcalc_limits.o)
                0x18024a14                __tzcalc_limits
 .text          0x18024b68        0x4 c:/program files (x86)/kpit/gnuarm-nonev16.01-eabi/arm-none-eabi/arm-none-eabi/bin/../lib/gcc/arm-none-eabi/5.2-GNUARM-NONE_v16.01/../../../../arm-none-eabi/lib/armv7-ar/thumb/fpu\libc.a(lib_a-tzlock.o)
                0x18024b68                __tz_lock
                0x18024b6a                __tz_unlock
 .text          0x18024b6c       0x28 c:/program files (x86)/kpit/gnuarm-nonev16.01-eabi/arm-none-eabi/arm-none-eabi/bin/../lib/gcc/arm-none-eabi/5.2-GNUARM-NONE_v16.01/../../../../arm-none-eabi/lib/armv7-ar/thumb/fpu\libc.a(lib_a-tzset.o)
                0x18024b6c                _tzset_unlocked
                0x18024b78                tzset
 .text          0x18024b94      0x320 c:/program files (x86)/kpit/gnuarm-nonev16.01-eabi/arm-none-eabi/arm-none-eabi/bin/../lib/gcc/arm-none-eabi/5.2-GNUARM-NONE_v16.01/../../../../arm-none-eabi/lib/armv7-ar/thumb/fpu\libc.a(lib_a-tzset_r.o)
                0x18024b94                _tzset_unlocked_r
                0x18024e9c                _tzset_r
 .text          0x18024eb4        0x0 c:/program files (x86)/kpit/gnuarm-nonev16.01-eabi/arm-none-eabi/arm-none-eabi/bin/../lib/gcc/arm-none-eabi/5.2-GNUARM-NONE_v16.01/../../../../arm-none-eabi/lib/armv7-ar/thumb/fpu\libc.a(lib_a-tzvars.o)
 *fill*         0x18024eb4        0x4 
 .text          0x18024eb8      0xf14 c:/program files (x86)/kpit/gnuarm-nonev16.01-eabi/arm-none-eabi/arm-none-eabi/bin/../lib/gcc/arm-none-eabi/5.2-GNUARM-NONE_v16.01/../../../../arm-none-eabi/lib/armv7-ar/thumb/fpu\libc.a(lib_a-vfprintf.o)
                0x18024eb8                _vfprintf_r
                0x18025d4c                vfprintf
 .text          0x18025dcc       0xac c:/program files (x86)/kpit/gnuarm-nonev16.01-eabi/arm-none-eabi/arm-none-eabi/bin/../lib/gcc/arm-none-eabi/5.2-GNUARM-NONE_v16.01/../../../../arm-none-eabi/lib/armv7-ar/thumb/fpu\libc.a(lib_a-wsetup.o)
                0x18025dcc                __swsetup_r
 .text          0x18025e78       0xc0 c:/program files (x86)/kpit/gnuarm-nonev16.01-eabi/arm-none-eabi/arm-none-eabi/bin/../lib/gcc/arm-none-eabi/5.2-GNUARM-NONE_v16.01/../../../../arm-none-eabi/lib/armv7-ar/thumb/fpu\libc.a(lib_a-__call_atexit.o)
                0x18025e78                __call_exitprocs
 .text          0x18025f38       0x3a c:/program files (x86)/kpit/gnuarm-nonev16.01-eabi/arm-none-eabi/arm-none-eabi/bin/../lib/gcc/arm-none-eabi/5.2-GNUARM-NONE_v16.01/../../../../arm-none-eabi/lib/armv7-ar/thumb/fpu\libc.a(lib_a-div.o)
                0x18025f38                div
 *fill*         0x18025f72        0x6 
 .text          0x18025f78      0xb74 c:/program files (x86)/kpit/gnuarm-nonev16.01-eabi/arm-none-eabi/arm-none-eabi/bin/../lib/gcc/arm-none-eabi/5.2-GNUARM-NONE_v16.01/../../../../arm-none-eabi/lib/armv7-ar/thumb/fpu\libc.a(lib_a-dtoa.o)
                0x18026098                _dtoa_r
 .text          0x18026aec        0xc c:/program files (x86)/kpit/gnuarm-nonev16.01-eabi/arm-none-eabi/arm-none-eabi/bin/../lib/gcc/arm-none-eabi/5.2-GNUARM-NONE_v16.01/../../../../arm-none-eabi/lib/armv7-ar/thumb/fpu\libc.a(lib_a-errno.o)
                0x18026aec                __errno
 .text          0x18026af8      0x164 c:/program files (x86)/kpit/gnuarm-nonev16.01-eabi/arm-none-eabi/arm-none-eabi/bin/../lib/gcc/arm-none-eabi/5.2-GNUARM-NONE_v16.01/../../../../arm-none-eabi/lib/armv7-ar/thumb/fpu\libc.a(lib_a-fflush.o)
                0x18026af8                __sflush_r
                0x18026c14                _fflush_r
                0x18026c38                fflush
 .text          0x18026c5c      0x18c c:/program files (x86)/kpit/gnuarm-nonev16.01-eabi/arm-none-eabi/arm-none-eabi/bin/../lib/gcc/arm-none-eabi/5.2-GNUARM-NONE_v16.01/../../../../arm-none-eabi/lib/armv7-ar/thumb/fpu\libc.a(lib_a-findfp.o)
                0x18026c60                _cleanup_r
                0x18026cc4                __sfmoreglue
                0x18026cf0                _cleanup
                0x18026cfc                __sinit
                0x18026d40                __sfp
                0x18026db8                __sfp_lock_acquire
                0x18026dba                __sfp_lock_release
                0x18026dbc                __sinit_lock_acquire
                0x18026dbe                __sinit_lock_release
                0x18026dc0                __fp_lock_all
                0x18026dd4                __fp_unlock_all
 .text          0x18026de8      0x218 c:/program files (x86)/kpit/gnuarm-nonev16.01-eabi/arm-none-eabi/arm-none-eabi/bin/../lib/gcc/arm-none-eabi/5.2-GNUARM-NONE_v16.01/../../../../arm-none-eabi/lib/armv7-ar/thumb/fpu\libc.a(lib_a-freer.o)
                0x18026de8                _malloc_trim_r
                0x18026e84                _free_r
 .text          0x18027000       0x74 c:/program files (x86)/kpit/gnuarm-nonev16.01-eabi/arm-none-eabi/arm-none-eabi/bin/../lib/gcc/arm-none-eabi/5.2-GNUARM-NONE_v16.01/../../../../arm-none-eabi/lib/armv7-ar/thumb/fpu\libc.a(lib_a-fwalk.o)
                0x18027000                _fwalk
                0x18027038                _fwalk_reent
 .text          0x18027074       0x88 c:/program files (x86)/kpit/gnuarm-nonev16.01-eabi/arm-none-eabi/arm-none-eabi/bin/../lib/gcc/arm-none-eabi/5.2-GNUARM-NONE_v16.01/../../../../arm-none-eabi/lib/armv7-ar/thumb/fpu\libc.a(lib_a-getenv_r.o)
                0x18027074                _findenv_r
                0x180270ec                _getenv_r
 .text          0x180270fc        0x8 c:/program files (x86)/kpit/gnuarm-nonev16.01-eabi/arm-none-eabi/arm-none-eabi/bin/../lib/gcc/arm-none-eabi/5.2-GNUARM-NONE_v16.01/../../../../arm-none-eabi/lib/armv7-ar/thumb/fpu\libc.a(lib_a-gettzinfo.o)
                0x180270fc                __gettzinfo
 .text          0x18027104      0x170 c:/program files (x86)/kpit/gnuarm-nonev16.01-eabi/arm-none-eabi/arm-none-eabi/bin/../lib/gcc/arm-none-eabi/5.2-GNUARM-NONE_v16.01/../../../../arm-none-eabi/lib/armv7-ar/thumb/fpu\libc.a(lib_a-gmtime_r.o)
                0x18027104                gmtime_r
 .text          0x18027274       0x78 c:/program files (x86)/kpit/gnuarm-nonev16.01-eabi/arm-none-eabi/arm-none-eabi/bin/../lib/gcc/arm-none-eabi/5.2-GNUARM-NONE_v16.01/../../../../arm-none-eabi/lib/armv7-ar/thumb/fpu\libc.a(lib_a-locale.o)
                0x18027274                _setlocale_r
                0x180272ac                __locale_charset
                0x180272b4                __locale_mb_cur_max
                0x180272c0                __locale_msgcharset
                0x180272c8                __locale_cjk_lang
                0x180272cc                _localeconv_r
                0x180272d4                setlocale
                0x180272e4                localeconv
 .text          0x180272ec       0xc8 c:/program files (x86)/kpit/gnuarm-nonev16.01-eabi/arm-none-eabi/arm-none-eabi/bin/../lib/gcc/arm-none-eabi/5.2-GNUARM-NONE_v16.01/../../../../arm-none-eabi/lib/armv7-ar/thumb/fpu\libc.a(lib_a-makebuf.o)
                0x180272ec                __smakebuf_r
 .text          0x180273b4       0x20 c:/program files (x86)/kpit/gnuarm-nonev16.01-eabi/arm-none-eabi/arm-none-eabi/bin/../lib/gcc/arm-none-eabi/5.2-GNUARM-NONE_v16.01/../../../../arm-none-eabi/lib/armv7-ar/thumb/fpu\libc.a(lib_a-malloc.o)
                0x180273b4                malloc
                0x180273c4                free
 .text          0x180273d4      0x450 c:/program files (x86)/kpit/gnuarm-nonev16.01-eabi/arm-none-eabi/arm-none-eabi/bin/../lib/gcc/arm-none-eabi/5.2-GNUARM-NONE_v16.01/../../../../arm-none-eabi/lib/armv7-ar/thumb/fpu\libc.a(lib_a-mallocr.o)
                0x180273d4                _malloc_r
 .text          0x18027824       0x1c c:/program files (x86)/kpit/gnuarm-nonev16.01-eabi/arm-none-eabi/arm-none-eabi/bin/../lib/gcc/arm-none-eabi/5.2-GNUARM-NONE_v16.01/../../../../arm-none-eabi/lib/armv7-ar/thumb/fpu\libc.a(lib_a-memchr-stub.o)
                0x18027824                memchr
 .text          0x18027840        0x4 c:/program files (x86)/kpit/gnuarm-nonev16.01-eabi/arm-none-eabi/arm-none-eabi/bin/../lib/gcc/arm-none-eabi/5.2-GNUARM-NONE_v16.01/../../../../arm-none-eabi/lib/armv7-ar/thumb/fpu\libc.a(lib_a-mlock.o)
                0x18027840                __malloc_lock
                0x18027842                __malloc_unlock
 .text          0x18027844      0x7ac c:/program files (x86)/kpit/gnuarm-nonev16.01-eabi/arm-none-eabi/arm-none-eabi/bin/../lib/gcc/arm-none-eabi/5.2-GNUARM-NONE_v16.01/../../../../arm-none-eabi/lib/armv7-ar/thumb/fpu\libc.a(lib_a-mprec.o)
                0x18027844                _Balloc
                0x18027890                _Bfree
                0x180278a2                __multadd
                0x1802791c                __s2b
                0x1802799c                __hi0bits
                0x180279dc                __lo0bits
                0x18027a36                __i2b
                0x18027a48                __multiply
                0x18027b6a                __pow5mult
                0x18027bec                __lshift
                0x18027c8e                __mcmp
                0x18027cc6                __mdiff
                0x18027d86                __ulp
                0x18027dd0                __b2d
                0x18027e6c                __d2b
                0x18027f08                __ratio
                0x18027f52                _mprec_log10
                0x18027f78                __copybits
                0x18027fac                __any_on
 .text          0x18027ff0       0x20 c:/program files (x86)/kpit/gnuarm-nonev16.01-eabi/arm-none-eabi/arm-none-eabi/bin/../lib/gcc/arm-none-eabi/5.2-GNUARM-NONE_v16.01/../../../../arm-none-eabi/lib/armv7-ar/thumb/fpu\libc.a(lib_a-sbrkr.o)
                0x18027ff0                _sbrk_r
 .text          0x18028010       0x50 c:/program files (x86)/kpit/gnuarm-nonev16.01-eabi/arm-none-eabi/arm-none-eabi/bin/../lib/gcc/arm-none-eabi/5.2-GNUARM-NONE_v16.01/../../../../arm-none-eabi/lib/armv7-ar/thumb/fpu\libc.a(lib_a-s_fpclassify.o)
                0x18028010                __fpclassifyd
 .text          0x18028060       0xa8 c:/program files (x86)/kpit/gnuarm-nonev16.01-eabi/arm-none-eabi/arm-none-eabi/bin/../lib/gcc/arm-none-eabi/5.2-GNUARM-NONE_v16.01/../../../../arm-none-eabi/lib/armv7-ar/thumb/fpu\libc.a(lib_a-siscanf.o)
                0x18028060                siscanf
                0x180280b4                _siscanf_r
 .text          0x18028108       0x8a c:/program files (x86)/kpit/gnuarm-nonev16.01-eabi/arm-none-eabi/arm-none-eabi/bin/../lib/gcc/arm-none-eabi/5.2-GNUARM-NONE_v16.01/../../../../arm-none-eabi/lib/armv7-ar/thumb/fpu\libc.a(lib_a-stdio.o)
                0x18028108                __sread
                0x1802812a                __seofread
                0x1802812e                __swrite
                0x18028166                __sseek
                0x1802818a                __sclose
 .text          0x18028192       0x14 c:/program files (x86)/kpit/gnuarm-nonev16.01-eabi/arm-none-eabi/arm-none-eabi/bin/../lib/gcc/arm-none-eabi/5.2-GNUARM-NONE_v16.01/../../../../arm-none-eabi/lib/armv7-ar/thumb/fpu\libc.a(lib_a-strcmp.o)
                0x18028192                strcmp
 .text          0x180281a6       0x10 c:/program files (x86)/kpit/gnuarm-nonev16.01-eabi/arm-none-eabi/arm-none-eabi/bin/../lib/gcc/arm-none-eabi/5.2-GNUARM-NONE_v16.01/../../../../arm-none-eabi/lib/armv7-ar/thumb/fpu\libc.a(lib_a-strcpy.o)
                0x180281a6                strcpy
 .text          0x180281b6       0x10 c:/program files (x86)/kpit/gnuarm-nonev16.01-eabi/arm-none-eabi/arm-none-eabi/bin/../lib/gcc/arm-none-eabi/5.2-GNUARM-NONE_v16.01/../../../../arm-none-eabi/lib/armv7-ar/thumb/fpu\libc.a(lib_a-strlen.o)
                0x180281b6                strlen
 .text          0x180281c6       0x2a c:/program files (x86)/kpit/gnuarm-nonev16.01-eabi/arm-none-eabi/arm-none-eabi/bin/../lib/gcc/arm-none-eabi/5.2-GNUARM-NONE_v16.01/../../../../arm-none-eabi/lib/armv7-ar/thumb/fpu\libc.a(lib_a-strncmp.o)
                0x180281c6                strncmp
 .text          0x180281f0      0x128 c:/program files (x86)/kpit/gnuarm-nonev16.01-eabi/arm-none-eabi/arm-none-eabi/bin/../lib/gcc/arm-none-eabi/5.2-GNUARM-NONE_v16.01/../../../../arm-none-eabi/lib/armv7-ar/thumb/fpu\libc.a(lib_a-strtoul.o)
                0x180281f0                _strtoul_r
                0x18028304                strtoul
 .text          0x18028318      0x840 c:/program files (x86)/kpit/gnuarm-nonev16.01-eabi/arm-none-eabi/arm-none-eabi/bin/../lib/gcc/arm-none-eabi/5.2-GNUARM-NONE_v16.01/../../../../arm-none-eabi/lib/armv7-ar/thumb/fpu\libc.a(lib_a-svfiscanf.o)
                0x18028318                _sungetc_r
                0x18028394                __ssrefill_r
                0x180283ce                _sfread_r
                0x18028440                __ssvfiscanf_r
 .text          0x18028b58      0x150 c:/program files (x86)/kpit/gnuarm-nonev16.01-eabi/arm-none-eabi/arm-none-eabi/bin/../lib/gcc/arm-none-eabi/5.2-GNUARM-NONE_v16.01/../../../../arm-none-eabi/lib/armv7-ar/thumb/fpu\libc.a(lib_a-ungetc.o)
                0x18028b58                __submore
                0x18028bc8                _ungetc_r
                0x18028c96                ungetc
 .text          0x18028ca8      0x838 c:/program files (x86)/kpit/gnuarm-nonev16.01-eabi/arm-none-eabi/arm-none-eabi/bin/../lib/gcc/arm-none-eabi/5.2-GNUARM-NONE_v16.01/../../../../arm-none-eabi/lib/armv7-ar/thumb/fpu\libc.a(lib_a-vfiprintf.o)
                0x18028ca8                __sprint_r
                0x18028d0c                _vfiprintf_r
                0x18029462                vfiprintf
 .text          0x180294e0       0x24 c:/program files (x86)/kpit/gnuarm-nonev16.01-eabi/arm-none-eabi/arm-none-eabi/bin/../lib/gcc/arm-none-eabi/5.2-GNUARM-NONE_v16.01/../../../../arm-none-eabi/lib/armv7-ar/thumb/fpu\libc.a(lib_a-writer.o)
                0x180294e0                _write_r
 .text          0x18029504       0x5c c:/program files (x86)/kpit/gnuarm-nonev16.01-eabi/arm-none-eabi/arm-none-eabi/bin/../lib/gcc/arm-none-eabi/5.2-GNUARM-NONE_v16.01/../../../../arm-none-eabi/lib/armv7-ar/thumb/fpu\libc.a(lib_a-callocr.o)
                0x18029504                _calloc_r
 .text          0x18029560       0x20 c:/program files (x86)/kpit/gnuarm-nonev16.01-eabi/arm-none-eabi/arm-none-eabi/bin/../lib/gcc/arm-none-eabi/5.2-GNUARM-NONE_v16.01/../../../../arm-none-eabi/lib/armv7-ar/thumb/fpu\libc.a(lib_a-closer.o)
                0x18029560                _close_r
 .text          0x18029580        0x0 c:/program files (x86)/kpit/gnuarm-nonev16.01-eabi/arm-none-eabi/arm-none-eabi/bin/../lib/gcc/arm-none-eabi/5.2-GNUARM-NONE_v16.01/../../../../arm-none-eabi/lib/armv7-ar/thumb/fpu\libc.a(lib_a-ctype_.o)
 .text          0x18029580        0x0 c:/program files (x86)/kpit/gnuarm-nonev16.01-eabi/arm-none-eabi/arm-none-eabi/bin/../lib/gcc/arm-none-eabi/5.2-GNUARM-NONE_v16.01/../../../../arm-none-eabi/lib/armv7-ar/thumb/fpu\libc.a(lib_a-environ.o)
 .text          0x18029580        0x4 c:/program files (x86)/kpit/gnuarm-nonev16.01-eabi/arm-none-eabi/arm-none-eabi/bin/../lib/gcc/arm-none-eabi/5.2-GNUARM-NONE_v16.01/../../../../arm-none-eabi/lib/armv7-ar/thumb/fpu\libc.a(lib_a-envlock.o)
                0x18029580                __env_lock
                0x18029582                __env_unlock
 .text          0x18029584       0x8c c:/program files (x86)/kpit/gnuarm-nonev16.01-eabi/arm-none-eabi/arm-none-eabi/bin/../lib/gcc/arm-none-eabi/5.2-GNUARM-NONE_v16.01/../../../../arm-none-eabi/lib/armv7-ar/thumb/fpu\libc.a(lib_a-fclose.o)
                0x18029584                _fclose_r
                0x18029600                fclose
 .text          0x18029610       0xe4 c:/program files (x86)/kpit/gnuarm-nonev16.01-eabi/arm-none-eabi/arm-none-eabi/bin/../lib/gcc/arm-none-eabi/5.2-GNUARM-NONE_v16.01/../../../../arm-none-eabi/lib/armv7-ar/thumb/fpu\libc.a(lib_a-fputwc.o)
                0x18029610                __fputwc
                0x180296ac                _fputwc_r
                0x180296ca                fputwc
 .text          0x180296f4       0x24 c:/program files (x86)/kpit/gnuarm-nonev16.01-eabi/arm-none-eabi/arm-none-eabi/bin/../lib/gcc/arm-none-eabi/5.2-GNUARM-NONE_v16.01/../../../../arm-none-eabi/lib/armv7-ar/thumb/fpu\libc.a(lib_a-fstatr.o)
                0x180296f4                _fstat_r
 .text          0x18029718      0x298 c:/program files (x86)/kpit/gnuarm-nonev16.01-eabi/arm-none-eabi/arm-none-eabi/bin/../lib/gcc/arm-none-eabi/5.2-GNUARM-NONE_v16.01/../../../../arm-none-eabi/lib/armv7-ar/thumb/fpu\libc.a(lib_a-fvwrite.o)
                0x18029718                __sfvwrite_r
 .text          0x180299b0       0x20 c:/program files (x86)/kpit/gnuarm-nonev16.01-eabi/arm-none-eabi/arm-none-eabi/bin/../lib/gcc/arm-none-eabi/5.2-GNUARM-NONE_v16.01/../../../../arm-none-eabi/lib/armv7-ar/thumb/fpu\libc.a(lib_a-isattyr.o)
                0x180299b0                _isatty_r
 .text          0x180299d0       0x1c c:/program files (x86)/kpit/gnuarm-nonev16.01-eabi/arm-none-eabi/arm-none-eabi/bin/../lib/gcc/arm-none-eabi/5.2-GNUARM-NONE_v16.01/../../../../arm-none-eabi/lib/armv7-ar/thumb/fpu\libc.a(lib_a-iswspace.o)
                0x180299d0                iswspace
 .text          0x180299ec       0x24 c:/program files (x86)/kpit/gnuarm-nonev16.01-eabi/arm-none-eabi/arm-none-eabi/bin/../lib/gcc/arm-none-eabi/5.2-GNUARM-NONE_v16.01/../../../../arm-none-eabi/lib/armv7-ar/thumb/fpu\libc.a(lib_a-lseekr.o)
                0x180299ec                _lseek_r
 .text          0x18029a10       0x6c c:/program files (x86)/kpit/gnuarm-nonev16.01-eabi/arm-none-eabi/arm-none-eabi/bin/../lib/gcc/arm-none-eabi/5.2-GNUARM-NONE_v16.01/../../../../arm-none-eabi/lib/armv7-ar/thumb/fpu\libc.a(lib_a-mbrtowc.o)
                0x18029a10                _mbrtowc_r
                0x18029a60                mbrtowc
 .text          0x18029a7c       0x54 c:/program files (x86)/kpit/gnuarm-nonev16.01-eabi/arm-none-eabi/arm-none-eabi/bin/../lib/gcc/arm-none-eabi/5.2-GNUARM-NONE_v16.01/../../../../arm-none-eabi/lib/armv7-ar/thumb/fpu\libc.a(lib_a-mbtowc_r.o)
                0x18029a7c                __ascii_mbtowc
                0x18029aa0                _mbtowc_r
 .text          0x18029ad0       0x24 c:/program files (x86)/kpit/gnuarm-nonev16.01-eabi/arm-none-eabi/arm-none-eabi/bin/../lib/gcc/arm-none-eabi/5.2-GNUARM-NONE_v16.01/../../../../arm-none-eabi/lib/armv7-ar/thumb/fpu\libc.a(lib_a-readr.o)
                0x18029ad0                _read_r
 .text          0x18029af4      0x35c c:/program files (x86)/kpit/gnuarm-nonev16.01-eabi/arm-none-eabi/arm-none-eabi/bin/../lib/gcc/arm-none-eabi/5.2-GNUARM-NONE_v16.01/../../../../arm-none-eabi/lib/armv7-ar/thumb/fpu\libc.a(lib_a-reallocr.o)
                0x18029af4                _realloc_r
 .text          0x18029e50       0xa0 c:/program files (x86)/kpit/gnuarm-nonev16.01-eabi/arm-none-eabi/arm-none-eabi/bin/../lib/gcc/arm-none-eabi/5.2-GNUARM-NONE_v16.01/../../../../arm-none-eabi/lib/armv7-ar/thumb/fpu\libc.a(lib_a-reent.o)
                0x18029e50                cleanup_glue
                0x18029e6a                _reclaim_reent
 .text          0x18029ef0       0x60 c:/program files (x86)/kpit/gnuarm-nonev16.01-eabi/arm-none-eabi/arm-none-eabi/bin/../lib/gcc/arm-none-eabi/5.2-GNUARM-NONE_v16.01/../../../../arm-none-eabi/lib/armv7-ar/thumb/fpu\libc.a(lib_a-sccl.o)
                0x18029ef0                __sccl
 .text          0x18029f50      0x144 c:/program files (x86)/kpit/gnuarm-nonev16.01-eabi/arm-none-eabi/arm-none-eabi/bin/../lib/gcc/arm-none-eabi/5.2-GNUARM-NONE_v16.01/../../../../arm-none-eabi/lib/armv7-ar/thumb/fpu\libc.a(lib_a-strtol.o)
                0x18029f50                _strtol_r
                0x1802a080                strtol
 .text          0x1802a094       0xa4 c:/program files (x86)/kpit/gnuarm-nonev16.01-eabi/arm-none-eabi/arm-none-eabi/bin/../lib/gcc/arm-none-eabi/5.2-GNUARM-NONE_v16.01/../../../../arm-none-eabi/lib/armv7-ar/thumb/fpu\libc.a(lib_a-wbuf.o)
                0x1802a094                __swbuf_r
                0x1802a126                __swbuf
 .text          0x1802a138       0x5c c:/program files (x86)/kpit/gnuarm-nonev16.01-eabi/arm-none-eabi/arm-none-eabi/bin/../lib/gcc/arm-none-eabi/5.2-GNUARM-NONE_v16.01/../../../../arm-none-eabi/lib/armv7-ar/thumb/fpu\libc.a(lib_a-wcrtomb.o)
                0x1802a138                _wcrtomb_r
                0x1802a180                wcrtomb
 .text          0x1802a194       0x48 c:/program files (x86)/kpit/gnuarm-nonev16.01-eabi/arm-none-eabi/arm-none-eabi/bin/../lib/gcc/arm-none-eabi/5.2-GNUARM-NONE_v16.01/../../../../arm-none-eabi/lib/armv7-ar/thumb/fpu\libc.a(lib_a-wctomb_r.o)
                0x1802a194                __ascii_wctomb
                0x1802a1ae                _wctomb_r
 *fill*         0x1802a1dc        0x4 
 .text          0x1802a1e0      0x278 c:/program files (x86)/kpit/gnuarm-nonev16.01-eabi/arm-none-eabi/arm-none-eabi/bin/../lib/gcc/arm-none-eabi/5.2-GNUARM-NONE_v16.01/armv7-ar/thumb/fpu\libgcc.a(_udivsi3.o)
                0x1802a1e0                __aeabi_uidiv
                0x1802a1e0                __udivsi3
                0x1802a43c                __aeabi_uidivmod
 .text          0x1802a458      0x2b0 c:/program files (x86)/kpit/gnuarm-nonev16.01-eabi/arm-none-eabi/arm-none-eabi/bin/../lib/gcc/arm-none-eabi/5.2-GNUARM-NONE_v16.01/armv7-ar/thumb/fpu\libgcc.a(_divsi3.o)
                0x1802a458                __divsi3
                0x1802a458                __aeabi_idiv
                0x1802a6ec                __aeabi_idivmod
 .text          0x1802a708        0x4 c:/program files (x86)/kpit/gnuarm-nonev16.01-eabi/arm-none-eabi/arm-none-eabi/bin/../lib/gcc/arm-none-eabi/5.2-GNUARM-NONE_v16.01/armv7-ar/thumb/fpu\libgcc.a(_dvmd_tls.o)
                0x1802a708                __aeabi_idiv0
                0x1802a708                __aeabi_ldiv0
 .text          0x1802a70c       0x30 c:/program files (x86)/kpit/gnuarm-nonev16.01-eabi/arm-none-eabi/arm-none-eabi/bin/../lib/gcc/arm-none-eabi/5.2-GNUARM-NONE_v16.01/armv7-ar/thumb/fpu\libgcc.a(_aeabi_uldivmod.o)
                0x1802a70c                __aeabi_uldivmod
 .text          0x1802a73c      0x114 c:/program files (x86)/kpit/gnuarm-nonev16.01-eabi/arm-none-eabi/arm-none-eabi/bin/../lib/gcc/arm-none-eabi/5.2-GNUARM-NONE_v16.01/armv7-ar/thumb/fpu\libgcc.a(_udivmoddi4.o)
                0x1802a73c                __udivmoddi4
 *(.init)
 *(.fini)
 *crtbegin.o(.ctors)
 *crtbegin?.o(.ctors)
 *(EXCLUDE_FILE(*crtend.o *crtend?.o) .ctors)
 *(SORT(.ctors.*))
 *(.ctors)
 *crtbegin.o(.dtors)
 *crtbegin?.o(.dtors)
 *(EXCLUDE_FILE(*crtend.o *crtend?.o) .dtors)
 *(SORT(.dtors.*))
 *(.dtors)
                0x1802a850                Image$$RO_DATA$$Base = .
 *(.rodata*)
 .rodata        0x1802a850       0x28 sample1n.o
 .rodata.str1.4
                0x1802a878       0x28 sample1n.o
 .rodata        0x1802a8a0        0xc sample1.o
 .rodata.str1.4
                0x1802a8ac      0x7de sample1.o
                                0x838 (size before relaxing)
 *fill*         0x1802b08a        0x2 
 .rodata        0x1802b08c       0x34 log_output.o
 .rodata.str1.4
                0x1802b0c0       0x36 log_output.o
                                 0x38 (size before relaxing)
 *fill*         0x1802b0f6        0x2 
 .rodata.str1.4
                0x1802b0f8       0x2d t_perror.o
                                 0x30 (size before relaxing)
 *fill*         0x1802b125        0x3 
 .rodata.str1.4
                0x1802b128       0xda strerror.o
                                 0xdc (size before relaxing)
 *fill*         0x1802b202        0x2 
 .rodata        0x1802b204        0x4 tTask_tecsgen.o
                0x1802b204                tTask_INIB_tab
 .rodata        0x1802b208        0x8 tSemaphore_tecsgen.o
                0x1802b208                tSemaphore_INIB_tab
 .rodata        0x1802b210        0x8 tInterruptRequest_tecsgen.o
                0x1802b210                tInterruptRequest_INIB_tab
 .rodata        0x1802b218       0x10 tISR_tecsgen.o
                0x1802b218                tISR_INIB_tab
 .rodata        0x1802b228       0x30 tSerialPortMain_tecsgen.o
                0x1802b228                tSerialPortMain_INIB_tab
                0x1802b238                SerialPort1_SerialPortMain_eSerialPort_des
                0x1802b240                tSerialPortMain_eSerialPort_MT_
 .rodata        0x1802b258        0xc tSerialAdapter_tecsgen.o
                0x1802b258                tSerialAdapter_SINGLE_CELL_INIB
                0x1802b260                SerialAdapter_cSerialPort
 .rodata        0x1802b264       0x10 tSysLog_tecsgen.o
                0x1802b264                tSysLog_SINGLE_CELL_INIB
 .rodata        0x1802b274        0x8 tLogTaskMain_tecsgen.o
                0x1802b274                tLogTaskMain_SINGLE_CELL_INIB
 .rodata        0x1802b27c        0x8 tBannerMain_tecsgen.o
                0x1802b27c                tBannerMain_SINGLE_CELL_INIB
 .rodata.str1.4
                0x1802b284        0x9 tBannerMain_tecsgen.o
                                 0x10 (size before relaxing)
 *fill*         0x1802b28d        0x3 
 .rodata        0x1802b290       0x20 tSCIF_tecsgen.o
                0x1802b290                tSCIF_INIB_tab
                0x1802b298                SIOPortTarget1_SCIF_eiTxISR_des
                0x1802b2a0                SIOPortTarget1_SCIF_eiRxISR_des
                0x1802b2a8                tSCIF_eiTxISR_MT_
                0x1802b2ac                tSCIF_eiRxISR_MT_
 .rodata.str1.4
                0x1802b2b0       0x39 tLogTaskMain.o
                                 0x3c (size before relaxing)
 *fill*         0x1802b2e9        0x3 
 .rodata        0x1802b2ec      0x15c tBannerMain.o
 .rodata.str1.4
                0x1802b448       0x2b tSCIF.o
                                 0x2c (size before relaxing)
 *fill*         0x1802b473        0x1 
 .rodata.str1.4
                0x1802b474       0x31 assert.o
                                 0x34 (size before relaxing)
 *fill*         0x1802b4a5        0x3 
 .rodata.str1.4
                0x1802b4a8       0x66 pinmap_common.o
                                 0x68 (size before relaxing)
 *fill*         0x1802b50e        0x2 
 .rodata        0x1802b510       0x1c us_ticker_api.o
 .rodata        0x1802b52c        0x8 gic.o
                0x1802b52c                GICInterface_BASE
                0x1802b530                GICDistributor_BASE
 .rodata        0x1802b534       0x8c analogin_api.o
 .rodata.str1.4
                0x1802b5c0       0x58 analogin_api.o
 .rodata        0x1802b618      0x434 can_api.o
 .rodata.str1.4
                0x1802ba4c       0x4f can_api.o
                                 0x50 (size before relaxing)
 *fill*         0x1802ba9b        0x1 
 .rodata        0x1802ba9c      0x2e4 gpio_irq_api.o
 .rodata        0x1802bd80       0x60 i2c_api.o
 .rodata.str1.4
                0x1802bde0       0x4f i2c_api.o
                                 0x50 (size before relaxing)
 *fill*         0x1802be2f        0x1 
 .rodata        0x1802be30      0x420 pinmap.o
 .rodata        0x1802c250      0x358 pwmout_api.o
 .rodata.str1.4
                0x1802c5a8       0x52 pwmout_api.o
                                 0x54 (size before relaxing)
 *fill*         0x1802c5fa        0x2 
 .rodata        0x1802c5fc      0x2a0 serial_api.o
 .rodata.str1.4
                0x1802c89c      0x120 serial_api.o
 .rodata        0x1802c9bc      0x104 spi_api.o
 .rodata.str1.4
                0x1802cac0       0xb7 spi_api.o
                                 0xb8 (size before relaxing)
 *fill*         0x1802cb77        0x1 
 .rodata.str1.4
                0x1802cb78       0xe7 net_buf.o
                                 0xe8 (size before relaxing)
 *fill*         0x1802cc5f        0x1 
 .rodata        0x1802cc60       0x14 net_subr.o
 .rodata        0x1802cc74       0xb4 net_timer.o
 .rodata.str1.4
                0x1802cd28       0x38 net_timer.o
 .rodata.str1.4
                0x1802cd60      0x1b0 in_subr.o
 .rodata        0x1802cf10        0x8 tinet_cfg.o
                0x1802cf10                _tinet_tmax_tcp_cepid
                0x1802cf14                _tinet_tmax_tcp_repid
 .rodata.str1.4
                0x1802cf18       0x1e ip_input.o
                                 0x20 (size before relaxing)
 *fill*         0x1802cf36        0x2 
 .rodata        0x1802cf38       0x10 ip_icmp.o
 .rodata.str1.4
                0x1802cf48       0x4d ip_icmp.o
                                 0x50 (size before relaxing)
 *fill*         0x1802cf95        0x3 
 .rodata        0x1802cf98        0x8 ethernet.o
                0x1802cf98                _tinet_ether_broad_cast_addr
 .rodata.str1.4
                0x1802cfa0       0x47 ethernet.o
                                 0x48 (size before relaxing)
 *fill*         0x1802cfe7        0x1 
 .rodata.str1.4
                0x1802cfe8       0x3c if_ether.o
 .rodata.str1.4
                0x1802d024       0x66 tcp_input.o
                                 0x68 (size before relaxing)
 *fill*         0x1802d08a        0x2 
 .rodata        0x1802d08c        0xc tcp_output.o
 .rodata.str1.4
                0x1802d098       0x19 tcp_output.o
                                 0x3c (size before relaxing)
 *fill*         0x1802d0b1        0x3 
 .rodata        0x1802d0b4       0x10 tcp_timer.o
 .rodata.str1.4
                0x1802d0c4       0x3f tcp_subr.o
                                 0x60 (size before relaxing)
 *fill*         0x1802d103        0x1 
 .rodata.str1.4
                0x1802d104       0x1f tcp_subr_ncs.o
                                 0x40 (size before relaxing)
 *fill*         0x1802d123        0x1 
 .rodata        0x1802d124      0x628 kernel_cfg.o
                0x1802d124                _kernel_exc_table
                0x1802d13c                _kernel_intcfg_table
                0x1802d388                _kernel_kmm
                0x1802d38c                _kernel_kmmsz
                0x1802d390                _kernel_istkpt
                0x1802d394                _kernel_istk
                0x1802d398                _kernel_istksz
                0x1802d39c                _kernel_intinib_table
                0x1802d3d8                _kernel_tnum_cfg_intno
                0x1802d3dc                _kernel_isrorder_table
                0x1802d3e8                _kernel_isrinib_table
                0x1802d424                _kernel_tmax_sisrid
                0x1802d428                _kernel_tmax_isrid
                0x1802d42c                _kernel_isr_queue_list
                0x1802d444                _kernel_tnum_isr_queue
                0x1802d448                _kernel_tmax_salmid
                0x1802d44c                _kernel_tmax_almid
                0x1802d450                _kernel_cycinib_table
                0x1802d478                _kernel_tmax_scycid
                0x1802d47c                _kernel_tmax_cycid
                0x1802d480                _kernel_mpfinib_table
                0x1802d50c                _kernel_tmax_smpfid
                0x1802d510                _kernel_tmax_mpfid
                0x1802d514                _kernel_tmax_smtxid
                0x1802d518                _kernel_tmax_mtxid
                0x1802d51c                _kernel_tmax_spdqid
                0x1802d520                _kernel_tmax_pdqid
                0x1802d524                _kernel_dtqinib_table
                0x1802d530                _kernel_tmax_sdtqid
                0x1802d534                _kernel_tmax_dtqid
                0x1802d538                _kernel_flginib_table
                0x1802d550                _kernel_tmax_sflgid
                0x1802d554                _kernel_tmax_flgid
                0x1802d558                _kernel_seminib_table
                0x1802d624                _kernel_tmax_ssemid
                0x1802d628                _kernel_tmax_semid
                0x1802d62c                _kernel_torder_table
                0x1802d654                _kernel_tinib_table
                0x1802d744                _kernel_tmax_stskid
                0x1802d748                _kernel_tmax_tskid
 .rodata        0x1802d74c        0x4 .\libkernel.a(target_kernel_impl.o)
                0x1802d74c                _kernel_arm_tnum_memory_area
 .rodata.str1.4
                0x1802d750       0x6b .\libkernel.a(chip_kernel_impl.o)
                                 0x6c (size before relaxing)
 *fill*         0x1802d7bb        0x1 
 .rodata.str1.4
                0x1802d7bc      0x22a .\libkernel.a(core_kernel_impl.o)
                                0x22c (size before relaxing)
 *fill*         0x1802d9e6        0x2 
 .rodata.str1.4
                0x1802d9e8       0x67 .\libkernel.a(task.o)
                                 0x68 (size before relaxing)
 *fill*         0x1802da4f        0x1 
 .rodata.str1.4
                0x1802da50       0x36 .\libkernel.a(time_event.o)
                                 0x38 (size before relaxing)
 .rodata.str1.4
                0x1802da86       0x4c .\libkernel.a(task_manage.o)
 *fill*         0x1802da86        0x2 
 .rodata.str1.4
                0x1802da88       0x30 .\libkernel.a(task_sync.o)
 .rodata.str1.4
                0x1802dab8       0x4c .\libkernel.a(semaphore.o)
 .rodata.str1.4
                0x1802dab8       0x4c .\libkernel.a(eventflag.o)
 .rodata.str1.4
                0x1802dab8       0x4c .\libkernel.a(dataqueue.o)
 .rodata.str1.4
                0x1802dab8       0x4c .\libkernel.a(mempfix.o)
 .rodata.str1.4
                0x1802dab8       0x4c .\libkernel.a(cyclic.o)
 .rodata.str1.4
                0x1802dab8       0x4c .\libkernel.a(alarm.o)
 .rodata.str1.4
                0x1802dab8       0x4c .\libkernel.a(interrupt.o)
 .rodata.str1.4
                0x1802dab8       0x2c .\libkernel.a(wait.o)
                                 0xa8 (size before relaxing)
 .rodata        0x1802dae4        0x4 c:/program files (x86)/kpit/gnuarm-nonev16.01-eabi/arm-none-eabi/arm-none-eabi/bin/../lib/gcc/arm-none-eabi/5.2-GNUARM-NONE_v16.01/../../../../arm-none-eabi/lib/armv7-ar/thumb/fpu\libc.a(lib_a-impure.o)
                0x1802dae4                _global_impure_ptr
 .rodata.str1.1
                0x1802dae8        0x2 c:/program files (x86)/kpit/gnuarm-nonev16.01-eabi/arm-none-eabi/arm-none-eabi/bin/../lib/gcc/arm-none-eabi/5.2-GNUARM-NONE_v16.01/../../../../arm-none-eabi/lib/armv7-ar/thumb/fpu\libc.a(lib_a-impure.o)
 *fill*         0x1802daea        0x2 
 .rodata        0x1802daec       0x60 c:/program files (x86)/kpit/gnuarm-nonev16.01-eabi/arm-none-eabi/arm-none-eabi/bin/../lib/gcc/arm-none-eabi/5.2-GNUARM-NONE_v16.01/../../../../arm-none-eabi/lib/armv7-ar/thumb/fpu\libc.a(lib_a-mktime.o)
 .rodata        0x1802db4c       0x60 c:/program files (x86)/kpit/gnuarm-nonev16.01-eabi/arm-none-eabi/arm-none-eabi/bin/../lib/gcc/arm-none-eabi/5.2-GNUARM-NONE_v16.01/../../../../arm-none-eabi/lib/armv7-ar/thumb/fpu\libc.a(lib_a-month_lengths.o)
                0x1802db4c                __month_lengths
 .rodata.str1.1
                0x1802dbac        0x4 c:/program files (x86)/kpit/gnuarm-nonev16.01-eabi/arm-none-eabi/arm-none-eabi/bin/../lib/gcc/arm-none-eabi/5.2-GNUARM-NONE_v16.01/../../../../arm-none-eabi/lib/armv7-ar/thumb/fpu\libc.a(lib_a-syscalls.o)
 .rodata.str1.1
                0x1802dbb0       0x3c c:/program files (x86)/kpit/gnuarm-nonev16.01-eabi/arm-none-eabi/arm-none-eabi/bin/../lib/gcc/arm-none-eabi/5.2-GNUARM-NONE_v16.01/../../../../arm-none-eabi/lib/armv7-ar/thumb/fpu\libc.a(lib_a-tzset_r.o)
                                 0x4e (size before relaxing)
 .rodata.str1.1
                0x1802dbec        0x4 c:/program files (x86)/kpit/gnuarm-nonev16.01-eabi/arm-none-eabi/arm-none-eabi/bin/../lib/gcc/arm-none-eabi/5.2-GNUARM-NONE_v16.01/../../../../arm-none-eabi/lib/armv7-ar/thumb/fpu\libc.a(lib_a-tzvars.o)
 .rodata        0x1802dbec       0x20 c:/program files (x86)/kpit/gnuarm-nonev16.01-eabi/arm-none-eabi/arm-none-eabi/bin/../lib/gcc/arm-none-eabi/5.2-GNUARM-NONE_v16.01/../../../../arm-none-eabi/lib/armv7-ar/thumb/fpu\libc.a(lib_a-vfprintf.o)
 .rodata.str1.1
                0x1802dc0c       0x34 c:/program files (x86)/kpit/gnuarm-nonev16.01-eabi/arm-none-eabi/arm-none-eabi/bin/../lib/gcc/arm-none-eabi/5.2-GNUARM-NONE_v16.01/../../../../arm-none-eabi/lib/armv7-ar/thumb/fpu\libc.a(lib_a-vfprintf.o)
 .rodata.str1.1
                0x1802dc40        0xd c:/program files (x86)/kpit/gnuarm-nonev16.01-eabi/arm-none-eabi/arm-none-eabi/bin/../lib/gcc/arm-none-eabi/5.2-GNUARM-NONE_v16.01/../../../../arm-none-eabi/lib/armv7-ar/thumb/fpu\libc.a(lib_a-dtoa.o)
                                  0xf (size before relaxing)
 .rodata.str1.1
                0x1802dc4d        0x8 c:/program files (x86)/kpit/gnuarm-nonev16.01-eabi/arm-none-eabi/arm-none-eabi/bin/../lib/gcc/arm-none-eabi/5.2-GNUARM-NONE_v16.01/../../../../arm-none-eabi/lib/armv7-ar/thumb/fpu\libc.a(lib_a-locale.o)
                                  0xb (size before relaxing)
 *fill*         0x1802dc55        0x3 
 .rodata        0x1802dc58      0x128 c:/program files (x86)/kpit/gnuarm-nonev16.01-eabi/arm-none-eabi/arm-none-eabi/bin/../lib/gcc/arm-none-eabi/5.2-GNUARM-NONE_v16.01/../../../../arm-none-eabi/lib/armv7-ar/thumb/fpu\libc.a(lib_a-mprec.o)
                0x1802dc68                __mprec_tens
                0x1802dd30                __mprec_tinytens
                0x1802dd58                __mprec_bigtens
 .rodata        0x1802dd80       0x22 c:/program files (x86)/kpit/gnuarm-nonev16.01-eabi/arm-none-eabi/arm-none-eabi/bin/../lib/gcc/arm-none-eabi/5.2-GNUARM-NONE_v16.01/../../../../arm-none-eabi/lib/armv7-ar/thumb/fpu\libc.a(lib_a-svfiscanf.o)
 .rodata        0x1802dda2       0x20 c:/program files (x86)/kpit/gnuarm-nonev16.01-eabi/arm-none-eabi/arm-none-eabi/bin/../lib/gcc/arm-none-eabi/5.2-GNUARM-NONE_v16.01/../../../../arm-none-eabi/lib/armv7-ar/thumb/fpu\libc.a(lib_a-vfiprintf.o)
 .rodata.str1.1
                0x1802ddc2       0x22 c:/program files (x86)/kpit/gnuarm-nonev16.01-eabi/arm-none-eabi/arm-none-eabi/bin/../lib/gcc/arm-none-eabi/5.2-GNUARM-NONE_v16.01/../../../../arm-none-eabi/lib/armv7-ar/thumb/fpu\libc.a(lib_a-vfiprintf.o)
 .rodata        0x1802ddc2      0x101 c:/program files (x86)/kpit/gnuarm-nonev16.01-eabi/arm-none-eabi/arm-none-eabi/bin/../lib/gcc/arm-none-eabi/5.2-GNUARM-NONE_v16.01/../../../../arm-none-eabi/lib/armv7-ar/thumb/fpu\libc.a(lib_a-ctype_.o)
                0x1802ddc2                _ctype_
 .rodata.str1.1
                0x1802dec3        0x1 c:/program files (x86)/kpit/gnuarm-nonev16.01-eabi/arm-none-eabi/arm-none-eabi/bin/../lib/gcc/arm-none-eabi/5.2-GNUARM-NONE_v16.01/../../../../arm-none-eabi/lib/armv7-ar/thumb/fpu\libc.a(lib_a-mbrtowc.o)
                0x1802dec4                Image$$RO_DATA$$Limit = .
 *(.eh_frame*)

.glue_7         0x1802dec4        0x0
 .glue_7        0x1802dec4        0x0 linker stubs

.glue_7t        0x1802dec4        0x0
 .glue_7t       0x1802dec4        0x0 linker stubs

.vfp11_veneer   0x1802dec4        0x0
 .vfp11_veneer  0x1802dec4        0x0 linker stubs

.v4_bx          0x1802dec4        0x0
 .v4_bx         0x1802dec4        0x0 linker stubs

.iplt           0x1802dec4        0x0
 .iplt          0x1802dec4        0x0 startup_RZ1AH.o

.ARM.extab      0x1802dec3        0x0
 *(.ARM.extab* .gnu.linkonce.armextab.*)
 .ARM.extab     0x1802dec3        0x0 c:/program files (x86)/kpit/gnuarm-nonev16.01-eabi/arm-none-eabi/arm-none-eabi/bin/../lib/gcc/arm-none-eabi/5.2-GNUARM-NONE_v16.01/armv7-ar/thumb/fpu\libgcc.a(_udivmoddi4.o)
                0x1802dec3                __exidx_start = .

.vector         0x1802dee0       0x40
 .vector        0x1802dee0       0x40 .\libkernel.a(core_support.o)
                0x1802dee0                vector_table
                0x1802df00                vector_ref_table

.ARM.exidx      0x1802df20        0x8
 *(.ARM.exidx* .gnu.linkonce.armexidx.*)
 .ARM.exidx     0x1802df20        0x8 c:/program files (x86)/kpit/gnuarm-nonev16.01-eabi/arm-none-eabi/arm-none-eabi/bin/../lib/gcc/arm-none-eabi/5.2-GNUARM-NONE_v16.01/armv7-ar/thumb/fpu\libgcc.a(_udivmoddi4.o)
                0x1802df28                __exidx_end = .

.rel.dyn        0x1802df28        0x0
 .rel.iplt      0x1802df28        0x0 startup_RZ1AH.o

.copy.table     0x1802df28       0x18
                0x1802df28                . = ALIGN (0x4)
                0x1802df28                __copy_table_start__ = .
                0x1802df28        0x4 LONG 0x1802df50 __etext
                0x1802df2c        0x4 LONG 0x20020000 __data_start__
                0x1802df30        0x4 LONG 0x14fc (__data_end__ - __data_start__)
                0x1802df34        0x4 LONG 0x1802f44c __etext2
                0x1802df38        0x4 LONG 0x20900000 __nc_data_start
                0x1802df3c        0x4 LONG 0x0 (__nc_data_end - __nc_data_start)
                0x1802df40                __copy_table_end__ = .

.zero.table     0x1802df40       0x10
                0x1802df40                . = ALIGN (0x4)
                0x1802df40                __zero_table_start__ = .
                0x1802df40        0x4 LONG 0x20021800 __bss_start__
                0x1802df44        0x4 LONG 0x23cac (__bss_end__ - __bss_start__)
                0x1802df48        0x4 LONG 0x20900000 __nc_bss_start
                0x1802df4c        0x4 LONG 0xca00 (__nc_bss_end - __nc_bss_start)
                0x1802df50                __zero_table_end__ = .
                0x1802df50                __etext = .

.ttb            0x20000000     0x4000
                0x20000000                Image$$TTB$$ZI$$Base = .
                0x20004000                . = (. + 0x4000)
 *fill*         0x20000000     0x4000 
                0x20004000                Image$$TTB$$ZI$$Limit = .

.data           0x20020000     0x14fc load address 0x1802df50
                0x20020000                Image$$RW_DATA$$Base = .
                0x20020000                __data_start__ = .
 *(vtable)
 *(.data*)
 .data          0x20020000        0x0 startup_RZ1AH.o
 .data          0x20020000        0x0 sample1n.o
 .data          0x20020000        0x0 sample1.o
 .data          0x20020000        0x0 log_output.o
 .data          0x20020000        0x0 vasyslog.o
 .data          0x20020000        0x0 t_perror.o
 .data          0x20020000        0x0 strerror.o
 .data          0x20020000        0x0 cache.o
 .data          0x20020000        0x0 init_tecs.o
 .data          0x20020000        0x0 tTask_tecsgen.o
 .data          0x20020000        0x0 tSemaphore_tecsgen.o
 .data          0x20020000        0x0 tInterruptRequest_tecsgen.o
 .data          0x20020000        0x0 tISR_tecsgen.o
 .data          0x20020000        0x0 tInitializeRoutine_tecsgen.o
 .data          0x20020000        0x0 tTerminateRoutine_tecsgen.o
 .data          0x20020000        0x0 tSerialPortMain_tecsgen.o
 .data          0x20020000        0x0 tSerialAdapter_tecsgen.o
 .data          0x20020000        0x0 tSysLog_tecsgen.o
 .data          0x20020000        0x0 tSysLogAdapter_tecsgen.o
 .data          0x20020000        0x0 tLogTaskMain_tecsgen.o
 .data          0x20020000        0x0 tBannerMain_tecsgen.o
 .data          0x20020000        0x0 tPutLogGRPeach_tecsgen.o
 .data          0x20020000        0x0 tSCIF_tecsgen.o
 .data          0x20020000        0x0 tSIOPortGRPeachMain_tecsgen.o
 .data          0x20020000        0x0 tTask.o
 .data          0x20020000        0x0 tISR.o
 .data          0x20020000        0x0 tInitializeRoutine.o
 .data          0x20020000        0x0 tTerminateRoutine.o
 .data          0x20020000        0x0 tSerialPortMain.o
 .data          0x20020000        0x0 tSerialAdapter.o
 .data          0x20020000        0x0 tSysLog.o
 .data          0x20020000        0x0 tSysLogAdapter.o
 .data          0x20020000        0x0 tLogTaskMain.o
 .data          0x20020000        0x0 tBannerMain.o
 .data          0x20020000        0x0 tPutLogGRPeach.o
 .data          0x20020000        0x0 tSCIF.o
 .data          0x20020000        0x0 assert.o
 .data          0x20020000        0x0 board.o
 .data          0x20020000        0x0 error.o
 .data          0x20020000        0x0 gpio.o
 .data          0x20020000        0x0 lp_ticker_api.o
 .data          0x20020000        0x0 mbed_interface.o
 .data          0x20020000        0x0 pinmap_common.o
 .data          0x20020000       0x10 rtc_time.o
 .data          0x20020010        0x0 semihost_api.o
 .data          0x20020010        0x0 ticker_api.o
 .data          0x20020010        0x0 us_ticker_api.o
 .data          0x20020010        0x0 RZ_A1_Init.o
 .data          0x20020010        0x0 cmsis_nvic.o
 .data          0x20020010        0x0 gic.o
 .data          0x20020010        0x0 mbed_sf_boot.o
 .data          0x20020010        0x0 mmu_Renesas_RZ_A1.o
 .data          0x20020010        0x0 nvic_wrapper.o
 .data          0x20020010        0x0 pl310.o
 .data          0x20020010        0x0 rza_io_regrw.o
 .data          0x20020010        0x4 system_MBRZA1H.o
                0x20020010                IRQCount
 .data          0x20020014        0x0 analogin_api.o
 .data          0x20020014        0x0 can_api.o
 .data          0x20020014        0xc ethernet_api.o
 .data          0x20020020        0x0 gpio_api.o
 .data          0x20020020        0x0 gpio_irq_api.o
 .data          0x20020020       0x10 i2c_api.o
                0x20020020                RIIC
 .data          0x20020030        0x2 pinmap.o
                0x20020030                gpio_multi_guard
 .data          0x20020032        0x0 port_api.o
 *fill*         0x20020032        0x2 
 .data          0x20020034       0x1c pwmout_api.o
 .data          0x20020050        0x0 rtc_api.o
 .data          0x20020050        0x0 serial_api.o
 .data          0x20020050        0x0 spi_api.o
 .data          0x20020050       0xa8 net_buf.o
 .data          0x200200f8        0x0 net_count.o
 .data          0x200200f8        0x8 net_subr.o
 .data          0x20020100        0x0 net_timer.o
 .data          0x20020100        0x4 in_subr.o
 .data          0x20020104       0xfc tinet_cfg.o
                0x20020104                _tinet_tcp_cep
                0x200201f4                _tinet_tcp_rep
 .data          0x20020200       0x50 route_cfg.o
                0x20020200                _tinet_routing_tbl
 .data          0x20020250        0x0 ip_input.o
 .data          0x20020250        0x0 ip_output.o
 .data          0x20020250        0x0 ip_icmp.o
 .data          0x20020250        0x0 tinet_target_config.o
 .data          0x20020250        0x0 if.o
 .data          0x20020250       0x14 ethernet.o
 .data          0x20020264        0x0 if_ether.o
 .data          0x20020264       0x14 if_mbed.o
                0x20020264                _tinet_if_softc
 .data          0x20020278        0x0 tcp_input.o
 .data          0x20020278        0x0 tcp_output.o
 .data          0x20020278        0x0 tcp_timer.o
 .data          0x20020278        0x2 tcp_subr.o
 .data          0x2002027a        0x0 tcp_subr_cs.o
 .data          0x2002027a        0x0 tcp_subr_ncs.o
 .data          0x2002027a        0x0 tcp_usrreq.o
 *fill*         0x2002027a        0x2 
 .data          0x2002027c      0x92c kernel_cfg.o
                0x2002027c                _kernel_inh_table
 .data          0x20020ba8        0x0 .\libkernel.a(core_support.o)
 .data          0x20020ba8       0x40 .\libkernel.a(target_kernel_impl.o)
                0x20020ba8                _kernel_arm_memory_area
 .data          0x20020be8        0x0 .\libkernel.a(chip_kernel_impl.o)
 .data          0x20020be8        0x0 .\libkernel.a(gic_kernel_impl.o)
 .data          0x20020be8        0x0 .\libkernel.a(chip_timer.o)
 .data          0x20020be8        0x0 .\libkernel.a(core_kernel_impl.o)
 .data          0x20020be8        0x0 .\libkernel.a(arm.o)
 .data          0x20020be8        0x0 .\libkernel.a(startup.o)
 .data          0x20020be8        0x0 .\libkernel.a(task.o)
 .data          0x20020be8        0x0 .\libkernel.a(taskhook.o)
 .data          0x20020be8        0x0 .\libkernel.a(time_event.o)
 .data          0x20020be8        0x0 .\libkernel.a(task_manage.o)
 .data          0x20020be8        0x0 .\libkernel.a(task_sync.o)
 .data          0x20020be8        0x0 .\libkernel.a(task_term.o)
 .data          0x20020be8        0x0 .\libkernel.a(semaphore.o)
 .data          0x20020be8        0x0 .\libkernel.a(eventflag.o)
 .data          0x20020be8        0x0 .\libkernel.a(dataqueue.o)
 .data          0x20020be8        0x0 .\libkernel.a(mempfix.o)
 .data          0x20020be8        0x0 .\libkernel.a(time_manage.o)
 .data          0x20020be8        0x0 .\libkernel.a(cyclic.o)
 .data          0x20020be8        0x0 .\libkernel.a(alarm.o)
 .data          0x20020be8        0x0 .\libkernel.a(sys_manage.o)
 .data          0x20020be8        0x0 .\libkernel.a(interrupt.o)
 .data          0x20020be8        0x0 .\libkernel.a(exception.o)
 .data          0x20020be8        0x0 .\libkernel.a(gic_support.o)
 .data          0x20020be8        0x0 .\libkernel.a(wait.o)
 .data          0x20020be8        0x0 c:/program files (x86)/kpit/gnuarm-nonev16.01-eabi/arm-none-eabi/arm-none-eabi/bin/../lib/gcc/arm-none-eabi/5.2-GNUARM-NONE_v16.01/../../../../arm-none-eabi/lib/armv7-ar/thumb/fpu\libc.a(lib_a-exit.o)
 .data          0x20020be8      0x430 c:/program files (x86)/kpit/gnuarm-nonev16.01-eabi/arm-none-eabi/arm-none-eabi/bin/../lib/gcc/arm-none-eabi/5.2-GNUARM-NONE_v16.01/../../../../arm-none-eabi/lib/armv7-ar/thumb/fpu\libc.a(lib_a-impure.o)
                0x20020be8                _impure_ptr
 .data          0x20021018        0x0 c:/program files (x86)/kpit/gnuarm-nonev16.01-eabi/arm-none-eabi/arm-none-eabi/bin/../lib/gcc/arm-none-eabi/5.2-GNUARM-NONE_v16.01/../../../../arm-none-eabi/lib/armv7-ar/thumb/fpu\libc.a(lib_a-lcltime.o)
 .data          0x20021018        0x0 c:/program files (x86)/kpit/gnuarm-nonev16.01-eabi/arm-none-eabi/arm-none-eabi/bin/../lib/gcc/arm-none-eabi/5.2-GNUARM-NONE_v16.01/../../../../arm-none-eabi/lib/armv7-ar/thumb/fpu\libc.a(lib_a-lcltime_r.o)
 .data          0x20021018        0x0 c:/program files (x86)/kpit/gnuarm-nonev16.01-eabi/arm-none-eabi/arm-none-eabi/bin/../lib/gcc/arm-none-eabi/5.2-GNUARM-NONE_v16.01/../../../../arm-none-eabi/lib/armv7-ar/thumb/fpu\libc.a(lib_a-memcmp.o)
 .data          0x20021018        0x0 c:/program files (x86)/kpit/gnuarm-nonev16.01-eabi/arm-none-eabi/arm-none-eabi/bin/../lib/gcc/arm-none-eabi/5.2-GNUARM-NONE_v16.01/../../../../arm-none-eabi/lib/armv7-ar/thumb/fpu\libc.a(lib_a-memcpy-stub.o)
 .data          0x20021018        0x0 c:/program files (x86)/kpit/gnuarm-nonev16.01-eabi/arm-none-eabi/arm-none-eabi/bin/../lib/gcc/arm-none-eabi/5.2-GNUARM-NONE_v16.01/../../../../arm-none-eabi/lib/armv7-ar/thumb/fpu\libc.a(lib_a-memmove.o)
 .data          0x20021018        0x0 c:/program files (x86)/kpit/gnuarm-nonev16.01-eabi/arm-none-eabi/arm-none-eabi/bin/../lib/gcc/arm-none-eabi/5.2-GNUARM-NONE_v16.01/../../../../arm-none-eabi/lib/armv7-ar/thumb/fpu\libc.a(lib_a-memset.o)
 .data          0x20021018        0x0 c:/program files (x86)/kpit/gnuarm-nonev16.01-eabi/arm-none-eabi/arm-none-eabi/bin/../lib/gcc/arm-none-eabi/5.2-GNUARM-NONE_v16.01/../../../../arm-none-eabi/lib/armv7-ar/thumb/fpu\libc.a(lib_a-mktime.o)
 .data          0x20021018        0x0 c:/program files (x86)/kpit/gnuarm-nonev16.01-eabi/arm-none-eabi/arm-none-eabi/bin/../lib/gcc/arm-none-eabi/5.2-GNUARM-NONE_v16.01/../../../../arm-none-eabi/lib/armv7-ar/thumb/fpu\libc.a(lib_a-month_lengths.o)
 .data          0x20021018        0x0 c:/program files (x86)/kpit/gnuarm-nonev16.01-eabi/arm-none-eabi/arm-none-eabi/bin/../lib/gcc/arm-none-eabi/5.2-GNUARM-NONE_v16.01/../../../../arm-none-eabi/lib/armv7-ar/thumb/fpu\libc.a(lib_a-syscalls.o)
 .data          0x20021018        0x0 c:/program files (x86)/kpit/gnuarm-nonev16.01-eabi/arm-none-eabi/arm-none-eabi/bin/../lib/gcc/arm-none-eabi/5.2-GNUARM-NONE_v16.01/../../../../arm-none-eabi/lib/armv7-ar/thumb/fpu\libc.a(lib_a-tzcalc_limits.o)
 .data          0x20021018        0x0 c:/program files (x86)/kpit/gnuarm-nonev16.01-eabi/arm-none-eabi/arm-none-eabi/bin/../lib/gcc/arm-none-eabi/5.2-GNUARM-NONE_v16.01/../../../../arm-none-eabi/lib/armv7-ar/thumb/fpu\libc.a(lib_a-tzlock.o)
 .data          0x20021018        0x0 c:/program files (x86)/kpit/gnuarm-nonev16.01-eabi/arm-none-eabi/arm-none-eabi/bin/../lib/gcc/arm-none-eabi/5.2-GNUARM-NONE_v16.01/../../../../arm-none-eabi/lib/armv7-ar/thumb/fpu\libc.a(lib_a-tzset.o)
 .data          0x20021018        0x0 c:/program files (x86)/kpit/gnuarm-nonev16.01-eabi/arm-none-eabi/arm-none-eabi/bin/../lib/gcc/arm-none-eabi/5.2-GNUARM-NONE_v16.01/../../../../arm-none-eabi/lib/armv7-ar/thumb/fpu\libc.a(lib_a-tzset_r.o)
 .data          0x20021018        0x8 c:/program files (x86)/kpit/gnuarm-nonev16.01-eabi/arm-none-eabi/arm-none-eabi/bin/../lib/gcc/arm-none-eabi/5.2-GNUARM-NONE_v16.01/../../../../arm-none-eabi/lib/armv7-ar/thumb/fpu\libc.a(lib_a-tzvars.o)
                0x20021018                _tzname
 .data          0x20021020        0x0 c:/program files (x86)/kpit/gnuarm-nonev16.01-eabi/arm-none-eabi/arm-none-eabi/bin/../lib/gcc/arm-none-eabi/5.2-GNUARM-NONE_v16.01/../../../../arm-none-eabi/lib/armv7-ar/thumb/fpu\libc.a(lib_a-vfprintf.o)
 .data          0x20021020        0x0 c:/program files (x86)/kpit/gnuarm-nonev16.01-eabi/arm-none-eabi/arm-none-eabi/bin/../lib/gcc/arm-none-eabi/5.2-GNUARM-NONE_v16.01/../../../../arm-none-eabi/lib/armv7-ar/thumb/fpu\libc.a(lib_a-wsetup.o)
 .data          0x20021020        0x0 c:/program files (x86)/kpit/gnuarm-nonev16.01-eabi/arm-none-eabi/arm-none-eabi/bin/../lib/gcc/arm-none-eabi/5.2-GNUARM-NONE_v16.01/../../../../arm-none-eabi/lib/armv7-ar/thumb/fpu\libc.a(lib_a-__call_atexit.o)
 .data          0x20021020        0x0 c:/program files (x86)/kpit/gnuarm-nonev16.01-eabi/arm-none-eabi/arm-none-eabi/bin/../lib/gcc/arm-none-eabi/5.2-GNUARM-NONE_v16.01/../../../../arm-none-eabi/lib/armv7-ar/thumb/fpu\libc.a(lib_a-div.o)
 .data          0x20021020        0x0 c:/program files (x86)/kpit/gnuarm-nonev16.01-eabi/arm-none-eabi/arm-none-eabi/bin/../lib/gcc/arm-none-eabi/5.2-GNUARM-NONE_v16.01/../../../../arm-none-eabi/lib/armv7-ar/thumb/fpu\libc.a(lib_a-dtoa.o)
 .data          0x20021020        0x0 c:/program files (x86)/kpit/gnuarm-nonev16.01-eabi/arm-none-eabi/arm-none-eabi/bin/../lib/gcc/arm-none-eabi/5.2-GNUARM-NONE_v16.01/../../../../arm-none-eabi/lib/armv7-ar/thumb/fpu\libc.a(lib_a-errno.o)
 .data          0x20021020        0x0 c:/program files (x86)/kpit/gnuarm-nonev16.01-eabi/arm-none-eabi/arm-none-eabi/bin/../lib/gcc/arm-none-eabi/5.2-GNUARM-NONE_v16.01/../../../../arm-none-eabi/lib/armv7-ar/thumb/fpu\libc.a(lib_a-fflush.o)
 .data          0x20021020        0x0 c:/program files (x86)/kpit/gnuarm-nonev16.01-eabi/arm-none-eabi/arm-none-eabi/bin/../lib/gcc/arm-none-eabi/5.2-GNUARM-NONE_v16.01/../../../../arm-none-eabi/lib/armv7-ar/thumb/fpu\libc.a(lib_a-findfp.o)
 .data          0x20021020        0x0 c:/program files (x86)/kpit/gnuarm-nonev16.01-eabi/arm-none-eabi/arm-none-eabi/bin/../lib/gcc/arm-none-eabi/5.2-GNUARM-NONE_v16.01/../../../../arm-none-eabi/lib/armv7-ar/thumb/fpu\libc.a(lib_a-freer.o)
 .data          0x20021020        0x0 c:/program files (x86)/kpit/gnuarm-nonev16.01-eabi/arm-none-eabi/arm-none-eabi/bin/../lib/gcc/arm-none-eabi/5.2-GNUARM-NONE_v16.01/../../../../arm-none-eabi/lib/armv7-ar/thumb/fpu\libc.a(lib_a-fwalk.o)
 .data          0x20021020        0x0 c:/program files (x86)/kpit/gnuarm-nonev16.01-eabi/arm-none-eabi/arm-none-eabi/bin/../lib/gcc/arm-none-eabi/5.2-GNUARM-NONE_v16.01/../../../../arm-none-eabi/lib/armv7-ar/thumb/fpu\libc.a(lib_a-getenv_r.o)
 .data          0x20021020       0x40 c:/program files (x86)/kpit/gnuarm-nonev16.01-eabi/arm-none-eabi/arm-none-eabi/bin/../lib/gcc/arm-none-eabi/5.2-GNUARM-NONE_v16.01/../../../../arm-none-eabi/lib/armv7-ar/thumb/fpu\libc.a(lib_a-gettzinfo.o)
 .data          0x20021060        0x0 c:/program files (x86)/kpit/gnuarm-nonev16.01-eabi/arm-none-eabi/arm-none-eabi/bin/../lib/gcc/arm-none-eabi/5.2-GNUARM-NONE_v16.01/../../../../arm-none-eabi/lib/armv7-ar/thumb/fpu\libc.a(lib_a-gmtime_r.o)
 .data          0x20021060       0x7c c:/program files (x86)/kpit/gnuarm-nonev16.01-eabi/arm-none-eabi/arm-none-eabi/bin/../lib/gcc/arm-none-eabi/5.2-GNUARM-NONE_v16.01/../../../../arm-none-eabi/lib/armv7-ar/thumb/fpu\libc.a(lib_a-locale.o)
                0x20021080                __mb_cur_max
 .data          0x200210dc        0x0 c:/program files (x86)/kpit/gnuarm-nonev16.01-eabi/arm-none-eabi/arm-none-eabi/bin/../lib/gcc/arm-none-eabi/5.2-GNUARM-NONE_v16.01/../../../../arm-none-eabi/lib/armv7-ar/thumb/fpu\libc.a(lib_a-makebuf.o)
 .data          0x200210dc        0x0 c:/program files (x86)/kpit/gnuarm-nonev16.01-eabi/arm-none-eabi/arm-none-eabi/bin/../lib/gcc/arm-none-eabi/5.2-GNUARM-NONE_v16.01/../../../../arm-none-eabi/lib/armv7-ar/thumb/fpu\libc.a(lib_a-malloc.o)
 .data          0x200210dc      0x410 c:/program files (x86)/kpit/gnuarm-nonev16.01-eabi/arm-none-eabi/arm-none-eabi/bin/../lib/gcc/arm-none-eabi/5.2-GNUARM-NONE_v16.01/../../../../arm-none-eabi/lib/armv7-ar/thumb/fpu\libc.a(lib_a-mallocr.o)
                0x200210dc                __malloc_av_
                0x200214e4                __malloc_sbrk_base
                0x200214e8                __malloc_trim_threshold
 .data          0x200214ec        0x0 c:/program files (x86)/kpit/gnuarm-nonev16.01-eabi/arm-none-eabi/arm-none-eabi/bin/../lib/gcc/arm-none-eabi/5.2-GNUARM-NONE_v16.01/../../../../arm-none-eabi/lib/armv7-ar/thumb/fpu\libc.a(lib_a-memchr-stub.o)
 .data          0x200214ec        0x0 c:/program files (x86)/kpit/gnuarm-nonev16.01-eabi/arm-none-eabi/arm-none-eabi/bin/../lib/gcc/arm-none-eabi/5.2-GNUARM-NONE_v16.01/../../../../arm-none-eabi/lib/armv7-ar/thumb/fpu\libc.a(lib_a-mlock.o)
 .data          0x200214ec        0x0 c:/program files (x86)/kpit/gnuarm-nonev16.01-eabi/arm-none-eabi/arm-none-eabi/bin/../lib/gcc/arm-none-eabi/5.2-GNUARM-NONE_v16.01/../../../../arm-none-eabi/lib/armv7-ar/thumb/fpu\libc.a(lib_a-mprec.o)
 .data          0x200214ec        0x0 c:/program files (x86)/kpit/gnuarm-nonev16.01-eabi/arm-none-eabi/arm-none-eabi/bin/../lib/gcc/arm-none-eabi/5.2-GNUARM-NONE_v16.01/../../../../arm-none-eabi/lib/armv7-ar/thumb/fpu\libc.a(lib_a-sbrkr.o)
 .data          0x200214ec        0x0 c:/program files (x86)/kpit/gnuarm-nonev16.01-eabi/arm-none-eabi/arm-none-eabi/bin/../lib/gcc/arm-none-eabi/5.2-GNUARM-NONE_v16.01/../../../../arm-none-eabi/lib/armv7-ar/thumb/fpu\libc.a(lib_a-s_fpclassify.o)
 .data          0x200214ec        0x0 c:/program files (x86)/kpit/gnuarm-nonev16.01-eabi/arm-none-eabi/arm-none-eabi/bin/../lib/gcc/arm-none-eabi/5.2-GNUARM-NONE_v16.01/../../../../arm-none-eabi/lib/armv7-ar/thumb/fpu\libc.a(lib_a-siscanf.o)
 .data          0x200214ec        0x0 c:/program files (x86)/kpit/gnuarm-nonev16.01-eabi/arm-none-eabi/arm-none-eabi/bin/../lib/gcc/arm-none-eabi/5.2-GNUARM-NONE_v16.01/../../../../arm-none-eabi/lib/armv7-ar/thumb/fpu\libc.a(lib_a-stdio.o)
 .data          0x200214ec        0x0 c:/program files (x86)/kpit/gnuarm-nonev16.01-eabi/arm-none-eabi/arm-none-eabi/bin/../lib/gcc/arm-none-eabi/5.2-GNUARM-NONE_v16.01/../../../../arm-none-eabi/lib/armv7-ar/thumb/fpu\libc.a(lib_a-strcmp.o)
 .data          0x200214ec        0x0 c:/program files (x86)/kpit/gnuarm-nonev16.01-eabi/arm-none-eabi/arm-none-eabi/bin/../lib/gcc/arm-none-eabi/5.2-GNUARM-NONE_v16.01/../../../../arm-none-eabi/lib/armv7-ar/thumb/fpu\libc.a(lib_a-strcpy.o)
 .data          0x200214ec        0x0 c:/program files (x86)/kpit/gnuarm-nonev16.01-eabi/arm-none-eabi/arm-none-eabi/bin/../lib/gcc/arm-none-eabi/5.2-GNUARM-NONE_v16.01/../../../../arm-none-eabi/lib/armv7-ar/thumb/fpu\libc.a(lib_a-strlen.o)
 .data          0x200214ec        0x0 c:/program files (x86)/kpit/gnuarm-nonev16.01-eabi/arm-none-eabi/arm-none-eabi/bin/../lib/gcc/arm-none-eabi/5.2-GNUARM-NONE_v16.01/../../../../arm-none-eabi/lib/armv7-ar/thumb/fpu\libc.a(lib_a-strncmp.o)
 .data          0x200214ec        0x0 c:/program files (x86)/kpit/gnuarm-nonev16.01-eabi/arm-none-eabi/arm-none-eabi/bin/../lib/gcc/arm-none-eabi/5.2-GNUARM-NONE_v16.01/../../../../arm-none-eabi/lib/armv7-ar/thumb/fpu\libc.a(lib_a-strtoul.o)
 .data          0x200214ec        0x0 c:/program files (x86)/kpit/gnuarm-nonev16.01-eabi/arm-none-eabi/arm-none-eabi/bin/../lib/gcc/arm-none-eabi/5.2-GNUARM-NONE_v16.01/../../../../arm-none-eabi/lib/armv7-ar/thumb/fpu\libc.a(lib_a-svfiscanf.o)
 .data          0x200214ec        0x0 c:/program files (x86)/kpit/gnuarm-nonev16.01-eabi/arm-none-eabi/arm-none-eabi/bin/../lib/gcc/arm-none-eabi/5.2-GNUARM-NONE_v16.01/../../../../arm-none-eabi/lib/armv7-ar/thumb/fpu\libc.a(lib_a-ungetc.o)
 .data          0x200214ec        0x0 c:/program files (x86)/kpit/gnuarm-nonev16.01-eabi/arm-none-eabi/arm-none-eabi/bin/../lib/gcc/arm-none-eabi/5.2-GNUARM-NONE_v16.01/../../../../arm-none-eabi/lib/armv7-ar/thumb/fpu\libc.a(lib_a-vfiprintf.o)
 .data          0x200214ec        0x0 c:/program files (x86)/kpit/gnuarm-nonev16.01-eabi/arm-none-eabi/arm-none-eabi/bin/../lib/gcc/arm-none-eabi/5.2-GNUARM-NONE_v16.01/../../../../arm-none-eabi/lib/armv7-ar/thumb/fpu\libc.a(lib_a-writer.o)
 .data          0x200214ec        0x0 c:/program files (x86)/kpit/gnuarm-nonev16.01-eabi/arm-none-eabi/arm-none-eabi/bin/../lib/gcc/arm-none-eabi/5.2-GNUARM-NONE_v16.01/../../../../arm-none-eabi/lib/armv7-ar/thumb/fpu\libc.a(lib_a-callocr.o)
 .data          0x200214ec        0x0 c:/program files (x86)/kpit/gnuarm-nonev16.01-eabi/arm-none-eabi/arm-none-eabi/bin/../lib/gcc/arm-none-eabi/5.2-GNUARM-NONE_v16.01/../../../../arm-none-eabi/lib/armv7-ar/thumb/fpu\libc.a(lib_a-closer.o)
 .data          0x200214ec        0x4 c:/program files (x86)/kpit/gnuarm-nonev16.01-eabi/arm-none-eabi/arm-none-eabi/bin/../lib/gcc/arm-none-eabi/5.2-GNUARM-NONE_v16.01/../../../../arm-none-eabi/lib/armv7-ar/thumb/fpu\libc.a(lib_a-ctype_.o)
                0x200214ec                __ctype_ptr__
 .data          0x200214f0        0x4 c:/program files (x86)/kpit/gnuarm-nonev16.01-eabi/arm-none-eabi/arm-none-eabi/bin/../lib/gcc/arm-none-eabi/5.2-GNUARM-NONE_v16.01/../../../../arm-none-eabi/lib/armv7-ar/thumb/fpu\libc.a(lib_a-environ.o)
                0x200214f0                environ
 .data          0x200214f4        0x0 c:/program files (x86)/kpit/gnuarm-nonev16.01-eabi/arm-none-eabi/arm-none-eabi/bin/../lib/gcc/arm-none-eabi/5.2-GNUARM-NONE_v16.01/../../../../arm-none-eabi/lib/armv7-ar/thumb/fpu\libc.a(lib_a-envlock.o)
 .data          0x200214f4        0x0 c:/program files (x86)/kpit/gnuarm-nonev16.01-eabi/arm-none-eabi/arm-none-eabi/bin/../lib/gcc/arm-none-eabi/5.2-GNUARM-NONE_v16.01/../../../../arm-none-eabi/lib/armv7-ar/thumb/fpu\libc.a(lib_a-fclose.o)
 .data          0x200214f4        0x0 c:/program files (x86)/kpit/gnuarm-nonev16.01-eabi/arm-none-eabi/arm-none-eabi/bin/../lib/gcc/arm-none-eabi/5.2-GNUARM-NONE_v16.01/../../../../arm-none-eabi/lib/armv7-ar/thumb/fpu\libc.a(lib_a-fputwc.o)
 .data          0x200214f4        0x0 c:/program files (x86)/kpit/gnuarm-nonev16.01-eabi/arm-none-eabi/arm-none-eabi/bin/../lib/gcc/arm-none-eabi/5.2-GNUARM-NONE_v16.01/../../../../arm-none-eabi/lib/armv7-ar/thumb/fpu\libc.a(lib_a-fstatr.o)
 .data          0x200214f4        0x0 c:/program files (x86)/kpit/gnuarm-nonev16.01-eabi/arm-none-eabi/arm-none-eabi/bin/../lib/gcc/arm-none-eabi/5.2-GNUARM-NONE_v16.01/../../../../arm-none-eabi/lib/armv7-ar/thumb/fpu\libc.a(lib_a-fvwrite.o)
 .data          0x200214f4        0x0 c:/program files (x86)/kpit/gnuarm-nonev16.01-eabi/arm-none-eabi/arm-none-eabi/bin/../lib/gcc/arm-none-eabi/5.2-GNUARM-NONE_v16.01/../../../../arm-none-eabi/lib/armv7-ar/thumb/fpu\libc.a(lib_a-isattyr.o)
 .data          0x200214f4        0x0 c:/program files (x86)/kpit/gnuarm-nonev16.01-eabi/arm-none-eabi/arm-none-eabi/bin/../lib/gcc/arm-none-eabi/5.2-GNUARM-NONE_v16.01/../../../../arm-none-eabi/lib/armv7-ar/thumb/fpu\libc.a(lib_a-iswspace.o)
 .data          0x200214f4        0x0 c:/program files (x86)/kpit/gnuarm-nonev16.01-eabi/arm-none-eabi/arm-none-eabi/bin/../lib/gcc/arm-none-eabi/5.2-GNUARM-NONE_v16.01/../../../../arm-none-eabi/lib/armv7-ar/thumb/fpu\libc.a(lib_a-lseekr.o)
 .data          0x200214f4        0x0 c:/program files (x86)/kpit/gnuarm-nonev16.01-eabi/arm-none-eabi/arm-none-eabi/bin/../lib/gcc/arm-none-eabi/5.2-GNUARM-NONE_v16.01/../../../../arm-none-eabi/lib/armv7-ar/thumb/fpu\libc.a(lib_a-mbrtowc.o)
 .data          0x200214f4        0x4 c:/program files (x86)/kpit/gnuarm-nonev16.01-eabi/arm-none-eabi/arm-none-eabi/bin/../lib/gcc/arm-none-eabi/5.2-GNUARM-NONE_v16.01/../../../../arm-none-eabi/lib/armv7-ar/thumb/fpu\libc.a(lib_a-mbtowc_r.o)
                0x200214f4                __mbtowc
 .data          0x200214f8        0x0 c:/program files (x86)/kpit/gnuarm-nonev16.01-eabi/arm-none-eabi/arm-none-eabi/bin/../lib/gcc/arm-none-eabi/5.2-GNUARM-NONE_v16.01/../../../../arm-none-eabi/lib/armv7-ar/thumb/fpu\libc.a(lib_a-readr.o)
 .data          0x200214f8        0x0 c:/program files (x86)/kpit/gnuarm-nonev16.01-eabi/arm-none-eabi/arm-none-eabi/bin/../lib/gcc/arm-none-eabi/5.2-GNUARM-NONE_v16.01/../../../../arm-none-eabi/lib/armv7-ar/thumb/fpu\libc.a(lib_a-reallocr.o)
 .data          0x200214f8        0x0 c:/program files (x86)/kpit/gnuarm-nonev16.01-eabi/arm-none-eabi/arm-none-eabi/bin/../lib/gcc/arm-none-eabi/5.2-GNUARM-NONE_v16.01/../../../../arm-none-eabi/lib/armv7-ar/thumb/fpu\libc.a(lib_a-reent.o)
 .data          0x200214f8        0x0 c:/program files (x86)/kpit/gnuarm-nonev16.01-eabi/arm-none-eabi/arm-none-eabi/bin/../lib/gcc/arm-none-eabi/5.2-GNUARM-NONE_v16.01/../../../../arm-none-eabi/lib/armv7-ar/thumb/fpu\libc.a(lib_a-sccl.o)
 .data          0x200214f8        0x0 c:/program files (x86)/kpit/gnuarm-nonev16.01-eabi/arm-none-eabi/arm-none-eabi/bin/../lib/gcc/arm-none-eabi/5.2-GNUARM-NONE_v16.01/../../../../arm-none-eabi/lib/armv7-ar/thumb/fpu\libc.a(lib_a-strtol.o)
 .data          0x200214f8        0x0 c:/program files (x86)/kpit/gnuarm-nonev16.01-eabi/arm-none-eabi/arm-none-eabi/bin/../lib/gcc/arm-none-eabi/5.2-GNUARM-NONE_v16.01/../../../../arm-none-eabi/lib/armv7-ar/thumb/fpu\libc.a(lib_a-wbuf.o)
 .data          0x200214f8        0x0 c:/program files (x86)/kpit/gnuarm-nonev16.01-eabi/arm-none-eabi/arm-none-eabi/bin/../lib/gcc/arm-none-eabi/5.2-GNUARM-NONE_v16.01/../../../../arm-none-eabi/lib/armv7-ar/thumb/fpu\libc.a(lib_a-wcrtomb.o)
 .data          0x200214f8        0x4 c:/program files (x86)/kpit/gnuarm-nonev16.01-eabi/arm-none-eabi/arm-none-eabi/bin/../lib/gcc/arm-none-eabi/5.2-GNUARM-NONE_v16.01/../../../../arm-none-eabi/lib/armv7-ar/thumb/fpu\libc.a(lib_a-wctomb_r.o)
                0x200214f8                __wctomb
 .data          0x200214fc        0x0 c:/program files (x86)/kpit/gnuarm-nonev16.01-eabi/arm-none-eabi/arm-none-eabi/bin/../lib/gcc/arm-none-eabi/5.2-GNUARM-NONE_v16.01/armv7-ar/thumb/fpu\libgcc.a(_udivsi3.o)
 .data          0x200214fc        0x0 c:/program files (x86)/kpit/gnuarm-nonev16.01-eabi/arm-none-eabi/arm-none-eabi/bin/../lib/gcc/arm-none-eabi/5.2-GNUARM-NONE_v16.01/armv7-ar/thumb/fpu\libgcc.a(_divsi3.o)
 .data          0x200214fc        0x0 c:/program files (x86)/kpit/gnuarm-nonev16.01-eabi/arm-none-eabi/arm-none-eabi/bin/../lib/gcc/arm-none-eabi/5.2-GNUARM-NONE_v16.01/armv7-ar/thumb/fpu\libgcc.a(_dvmd_tls.o)
 .data          0x200214fc        0x0 c:/program files (x86)/kpit/gnuarm-nonev16.01-eabi/arm-none-eabi/arm-none-eabi/bin/../lib/gcc/arm-none-eabi/5.2-GNUARM-NONE_v16.01/armv7-ar/thumb/fpu\libgcc.a(_aeabi_uldivmod.o)
 .data          0x200214fc        0x0 c:/program files (x86)/kpit/gnuarm-nonev16.01-eabi/arm-none-eabi/arm-none-eabi/bin/../lib/gcc/arm-none-eabi/5.2-GNUARM-NONE_v16.01/armv7-ar/thumb/fpu\libgcc.a(_udivmoddi4.o)
                0x200214fc                Image$$RW_DATA$$Limit = .
                0x200214fc                . = ALIGN (0x4)
                [!provide]                PROVIDE (__preinit_array_start, .)
 *(.preinit_array)
                [!provide]                PROVIDE (__preinit_array_end, .)
                0x200214fc                . = ALIGN (0x4)
                [!provide]                PROVIDE (__init_array_start, .)
 *(SORT(.init_array.*))
 *(.init_array)
                [!provide]                PROVIDE (__init_array_end, .)
                0x200214fc                . = ALIGN (0x4)
                [!provide]                PROVIDE (__fini_array_start, .)
 *(SORT(.fini_array.*))
 *(.fini_array)
                [!provide]                PROVIDE (__fini_array_end, .)
                0x200214fc                . = ALIGN (0x4)
                0x200214fc                __data_end__ = .

.igot.plt       0x200214fc        0x0 load address 0x1802f44c
 .igot.plt      0x200214fc        0x0 startup_RZ1AH.o

.bss            0x20021800    0x23cac load address 0x1802f750
                0x20021800                Image$$ZI_DATA$$Base = .
                0x20021800                __bss_start__ = .
 *(.bss*)
 .bss           0x20021800        0x0 startup_RZ1AH.o
 .bss           0x20021800       0x24 sample1n.o
                0x20021800                connected
                0x20021804                rcv_off
                0x20021808                rcv_len
                0x2002180c                snd_off
                0x20021810                snd_len
                0x20021814                wait_accept
                0x20021818                net_ioctl
                0x2002181c                snd_buff
                0x20021820                rcv_buff
 .bss           0x20021824        0x0 sample1.o
 .bss           0x20021824        0x0 log_output.o
 .bss           0x20021824        0x0 vasyslog.o
 .bss           0x20021824        0x0 t_perror.o
 .bss           0x20021824        0x0 strerror.o
 .bss           0x20021824        0x0 cache.o
 .bss           0x20021824        0x0 init_tecs.o
 .bss           0x20021824        0x0 tTask_tecsgen.o
 .bss           0x20021824        0x0 tSemaphore_tecsgen.o
 .bss           0x20021824        0x0 tInterruptRequest_tecsgen.o
 .bss           0x20021824        0x0 tISR_tecsgen.o
 .bss           0x20021824        0x0 tInitializeRoutine_tecsgen.o
 .bss           0x20021824        0x0 tTerminateRoutine_tecsgen.o
 .bss           0x20021824        0x0 tSerialPortMain_tecsgen.o
 .bss           0x20021824        0x0 tSerialAdapter_tecsgen.o
 .bss           0x20021824        0x0 tSysLog_tecsgen.o
 .bss           0x20021824        0x0 tSysLogAdapter_tecsgen.o
 .bss           0x20021824        0x0 tLogTaskMain_tecsgen.o
 .bss           0x20021824        0x0 tBannerMain_tecsgen.o
 .bss           0x20021824        0x0 tPutLogGRPeach_tecsgen.o
 .bss           0x20021824        0x0 tSCIF_tecsgen.o
 .bss           0x20021824        0x0 tSIOPortGRPeachMain_tecsgen.o
 .bss           0x20021824        0x0 tTask.o
 .bss           0x20021824        0x0 tISR.o
 .bss           0x20021824        0x0 tInitializeRoutine.o
 .bss           0x20021824        0x0 tTerminateRoutine.o
 .bss           0x20021824        0x0 tSerialPortMain.o
 .bss           0x20021824        0x0 tSerialAdapter.o
 .bss           0x20021824        0x0 tSysLog.o
 .bss           0x20021824        0x0 tSysLogAdapter.o
 .bss           0x20021824        0x0 tLogTaskMain.o
 .bss           0x20021824        0x0 tBannerMain.o
 .bss           0x20021824        0x0 tPutLogGRPeach.o
 .bss           0x20021824        0x0 tSCIF.o
 .bss           0x20021824        0x0 assert.o
 .bss           0x20021824        0x0 board.o
 .bss           0x20021824        0x0 error.o
 .bss           0x20021824        0x0 gpio.o
 .bss           0x20021824        0x0 lp_ticker_api.o
 .bss           0x20021824        0x0 mbed_interface.o
 .bss           0x20021824        0x0 pinmap_common.o
 .bss           0x20021824        0x0 rtc_time.o
 .bss           0x20021824        0x0 semihost_api.o
 .bss           0x20021824        0x0 ticker_api.o
 .bss           0x20021824        0x8 us_ticker_api.o
 .bss           0x2002182c        0x0 RZ_A1_Init.o
 .bss           0x2002182c        0x0 cmsis_nvic.o
 .bss           0x2002182c        0x0 gic.o
 .bss           0x2002182c        0x0 mbed_sf_boot.o
 .bss           0x2002182c       0x2c mmu_Renesas_RZ_A1.o
 .bss           0x20021858        0x0 nvic_wrapper.o
 .bss           0x20021858        0x0 pl310.o
 .bss           0x20021858        0x0 rza_io_regrw.o
 .bss           0x20021858        0x1 system_MBRZA1H.o
                0x20021858                seen_id0_active
 .bss           0x20021859        0x0 analogin_api.o
 *fill*         0x20021859        0x3 
 .bss           0x2002185c       0x2c can_api.o
 .bss           0x20021888       0x28 ethernet_api.o
 .bss           0x200218b0        0x0 gpio_api.o
 .bss           0x200218b0       0x24 gpio_irq_api.o
 .bss           0x200218d4        0x0 i2c_api.o
 .bss           0x200218d4        0x0 pinmap.o
 .bss           0x200218d4        0x0 port_api.o
 .bss           0x200218d4       0x14 pwmout_api.o
 .bss           0x200218e8        0x0 rtc_api.o
 .bss           0x200218e8      0x1c8 serial_api.o
                0x20021aac                stdio_uart_inited
 .bss           0x20021ab0        0x0 spi_api.o
 .bss           0x20021ab0        0x0 net_buf.o
 .bss           0x20021ab0        0x0 net_count.o
 .bss           0x20021ab0       0x14 net_subr.o
 .bss           0x20021ac4       0x78 net_timer.o
 .bss           0x20021b3c       0x10 in_subr.o
 .bss           0x20021b4c        0x0 tinet_cfg.o
 .bss           0x20021b4c        0x0 route_cfg.o
 .bss           0x20021b4c       0x10 ip_input.o
 .bss           0x20021b5c        0x2 ip_output.o
 .bss           0x20021b5e        0x0 ip_icmp.o
 .bss           0x20021b5e        0x0 tinet_target_config.o
 .bss           0x20021b5e        0x0 if.o
 .bss           0x20021b5e        0x0 ethernet.o
 *fill*         0x20021b5e        0x2 
 .bss           0x20021b60       0xa0 if_ether.o
 .bss           0x20021c00        0xc if_mbed.o
 .bss           0x20021c0c        0x0 tcp_input.o
 .bss           0x20021c0c        0x4 tcp_output.o
 .bss           0x20021c10        0x0 tcp_timer.o
 .bss           0x20021c10        0x4 tcp_subr.o
                0x20021c10                _tinet_tcp_iss
 .bss           0x20021c14        0x0 tcp_subr_cs.o
 .bss           0x20021c14        0x0 tcp_subr_ncs.o
 .bss           0x20021c14        0x0 tcp_usrreq.o
 .bss           0x20021c14    0x1460c kernel_cfg.o
 .bss           0x20036220        0x0 .\libkernel.a(core_support.o)
 .bss           0x20036220        0x0 .\libkernel.a(target_kernel_impl.o)
 .bss           0x20036220        0x0 .\libkernel.a(chip_kernel_impl.o)
 .bss           0x20036220        0x0 .\libkernel.a(gic_kernel_impl.o)
 .bss           0x20036220        0x0 .\libkernel.a(chip_timer.o)
 *fill*         0x20036220     0x1de0 
 .bss           0x20038000     0x4000 .\libkernel.a(core_kernel_impl.o)
 .bss           0x2003c000        0x0 .\libkernel.a(arm.o)
 .bss           0x2003c000        0x8 .\libkernel.a(startup.o)
                0x2003c000                _kernel_kerflg
 .bss           0x2003c008        0x0 .\libkernel.a(task.o)
 .bss           0x2003c008        0xc .\libkernel.a(taskhook.o)
                0x2003c008                _kernel_mtxhook_release_all
                0x2003c00c                _kernel_mtxhook_scan_ceilmtx
                0x2003c010                _kernel_mtxhook_check_ceilpri
 .bss           0x2003c014        0x0 .\libkernel.a(time_event.o)
 .bss           0x2003c014        0x0 .\libkernel.a(task_manage.o)
 .bss           0x2003c014        0x0 .\libkernel.a(task_sync.o)
 .bss           0x2003c014        0x0 .\libkernel.a(task_term.o)
 .bss           0x2003c014        0x0 .\libkernel.a(semaphore.o)
 .bss           0x2003c014        0x0 .\libkernel.a(eventflag.o)
 .bss           0x2003c014        0x0 .\libkernel.a(dataqueue.o)
 .bss           0x2003c014        0x0 .\libkernel.a(mempfix.o)
 .bss           0x2003c014        0x0 .\libkernel.a(time_manage.o)
 .bss           0x2003c014        0x0 .\libkernel.a(cyclic.o)
 .bss           0x2003c014        0x0 .\libkernel.a(alarm.o)
 .bss           0x2003c014        0x0 .\libkernel.a(sys_manage.o)
 .bss           0x2003c014        0x0 .\libkernel.a(interrupt.o)
 .bss           0x2003c014        0x0 .\libkernel.a(exception.o)
 .bss           0x2003c014        0x0 .\libkernel.a(gic_support.o)
 .bss           0x2003c014        0x0 .\libkernel.a(wait.o)
 .bss           0x2003c014        0x0 c:/program files (x86)/kpit/gnuarm-nonev16.01-eabi/arm-none-eabi/arm-none-eabi/bin/../lib/gcc/arm-none-eabi/5.2-GNUARM-NONE_v16.01/../../../../arm-none-eabi/lib/armv7-ar/thumb/fpu\libc.a(lib_a-exit.o)
 .bss           0x2003c014        0x0 c:/program files (x86)/kpit/gnuarm-nonev16.01-eabi/arm-none-eabi/arm-none-eabi/bin/../lib/gcc/arm-none-eabi/5.2-GNUARM-NONE_v16.01/../../../../arm-none-eabi/lib/armv7-ar/thumb/fpu\libc.a(lib_a-impure.o)
 .bss           0x2003c014        0x0 c:/program files (x86)/kpit/gnuarm-nonev16.01-eabi/arm-none-eabi/arm-none-eabi/bin/../lib/gcc/arm-none-eabi/5.2-GNUARM-NONE_v16.01/../../../../arm-none-eabi/lib/armv7-ar/thumb/fpu\libc.a(lib_a-lcltime.o)
 .bss           0x2003c014        0x0 c:/program files (x86)/kpit/gnuarm-nonev16.01-eabi/arm-none-eabi/arm-none-eabi/bin/../lib/gcc/arm-none-eabi/5.2-GNUARM-NONE_v16.01/../../../../arm-none-eabi/lib/armv7-ar/thumb/fpu\libc.a(lib_a-lcltime_r.o)
 .bss           0x2003c014        0x0 c:/program files (x86)/kpit/gnuarm-nonev16.01-eabi/arm-none-eabi/arm-none-eabi/bin/../lib/gcc/arm-none-eabi/5.2-GNUARM-NONE_v16.01/../../../../arm-none-eabi/lib/armv7-ar/thumb/fpu\libc.a(lib_a-memcmp.o)
 .bss           0x2003c014        0x0 c:/program files (x86)/kpit/gnuarm-nonev16.01-eabi/arm-none-eabi/arm-none-eabi/bin/../lib/gcc/arm-none-eabi/5.2-GNUARM-NONE_v16.01/../../../../arm-none-eabi/lib/armv7-ar/thumb/fpu\libc.a(lib_a-memcpy-stub.o)
 .bss           0x2003c014        0x0 c:/program files (x86)/kpit/gnuarm-nonev16.01-eabi/arm-none-eabi/arm-none-eabi/bin/../lib/gcc/arm-none-eabi/5.2-GNUARM-NONE_v16.01/../../../../arm-none-eabi/lib/armv7-ar/thumb/fpu\libc.a(lib_a-memmove.o)
 .bss           0x2003c014        0x0 c:/program files (x86)/kpit/gnuarm-nonev16.01-eabi/arm-none-eabi/arm-none-eabi/bin/../lib/gcc/arm-none-eabi/5.2-GNUARM-NONE_v16.01/../../../../arm-none-eabi/lib/armv7-ar/thumb/fpu\libc.a(lib_a-memset.o)
 .bss           0x2003c014        0x0 c:/program files (x86)/kpit/gnuarm-nonev16.01-eabi/arm-none-eabi/arm-none-eabi/bin/../lib/gcc/arm-none-eabi/5.2-GNUARM-NONE_v16.01/../../../../arm-none-eabi/lib/armv7-ar/thumb/fpu\libc.a(lib_a-mktime.o)
 .bss           0x2003c014        0x0 c:/program files (x86)/kpit/gnuarm-nonev16.01-eabi/arm-none-eabi/arm-none-eabi/bin/../lib/gcc/arm-none-eabi/5.2-GNUARM-NONE_v16.01/../../../../arm-none-eabi/lib/armv7-ar/thumb/fpu\libc.a(lib_a-month_lengths.o)
 .bss           0x2003c014       0xb0 c:/program files (x86)/kpit/gnuarm-nonev16.01-eabi/arm-none-eabi/arm-none-eabi/bin/../lib/gcc/arm-none-eabi/5.2-GNUARM-NONE_v16.01/../../../../arm-none-eabi/lib/armv7-ar/thumb/fpu\libc.a(lib_a-syscalls.o)
 .bss           0x2003c0c4        0x0 c:/program files (x86)/kpit/gnuarm-nonev16.01-eabi/arm-none-eabi/arm-none-eabi/bin/../lib/gcc/arm-none-eabi/5.2-GNUARM-NONE_v16.01/../../../../arm-none-eabi/lib/armv7-ar/thumb/fpu\libc.a(lib_a-tzcalc_limits.o)
 .bss           0x2003c0c4        0x0 c:/program files (x86)/kpit/gnuarm-nonev16.01-eabi/arm-none-eabi/arm-none-eabi/bin/../lib/gcc/arm-none-eabi/5.2-GNUARM-NONE_v16.01/../../../../arm-none-eabi/lib/armv7-ar/thumb/fpu\libc.a(lib_a-tzlock.o)
 .bss           0x2003c0c4        0x0 c:/program files (x86)/kpit/gnuarm-nonev16.01-eabi/arm-none-eabi/arm-none-eabi/bin/../lib/gcc/arm-none-eabi/5.2-GNUARM-NONE_v16.01/../../../../arm-none-eabi/lib/armv7-ar/thumb/fpu\libc.a(lib_a-tzset.o)
 .bss           0x2003c0c4       0x1a c:/program files (x86)/kpit/gnuarm-nonev16.01-eabi/arm-none-eabi/arm-none-eabi/bin/../lib/gcc/arm-none-eabi/5.2-GNUARM-NONE_v16.01/../../../../arm-none-eabi/lib/armv7-ar/thumb/fpu\libc.a(lib_a-tzset_r.o)
 *fill*         0x2003c0de        0x2 
 .bss           0x2003c0e0        0x8 c:/program files (x86)/kpit/gnuarm-nonev16.01-eabi/arm-none-eabi/arm-none-eabi/bin/../lib/gcc/arm-none-eabi/5.2-GNUARM-NONE_v16.01/../../../../arm-none-eabi/lib/armv7-ar/thumb/fpu\libc.a(lib_a-tzvars.o)
                0x2003c0e0                _timezone
                0x2003c0e4                _daylight
 .bss           0x2003c0e8        0x0 c:/program files (x86)/kpit/gnuarm-nonev16.01-eabi/arm-none-eabi/arm-none-eabi/bin/../lib/gcc/arm-none-eabi/5.2-GNUARM-NONE_v16.01/../../../../arm-none-eabi/lib/armv7-ar/thumb/fpu\libc.a(lib_a-vfprintf.o)
 .bss           0x2003c0e8        0x0 c:/program files (x86)/kpit/gnuarm-nonev16.01-eabi/arm-none-eabi/arm-none-eabi/bin/../lib/gcc/arm-none-eabi/5.2-GNUARM-NONE_v16.01/../../../../arm-none-eabi/lib/armv7-ar/thumb/fpu\libc.a(lib_a-wsetup.o)
 .bss           0x2003c0e8        0x0 c:/program files (x86)/kpit/gnuarm-nonev16.01-eabi/arm-none-eabi/arm-none-eabi/bin/../lib/gcc/arm-none-eabi/5.2-GNUARM-NONE_v16.01/../../../../arm-none-eabi/lib/armv7-ar/thumb/fpu\libc.a(lib_a-__call_atexit.o)
 .bss           0x2003c0e8        0x0 c:/program files (x86)/kpit/gnuarm-nonev16.01-eabi/arm-none-eabi/arm-none-eabi/bin/../lib/gcc/arm-none-eabi/5.2-GNUARM-NONE_v16.01/../../../../arm-none-eabi/lib/armv7-ar/thumb/fpu\libc.a(lib_a-div.o)
 .bss           0x2003c0e8        0x0 c:/program files (x86)/kpit/gnuarm-nonev16.01-eabi/arm-none-eabi/arm-none-eabi/bin/../lib/gcc/arm-none-eabi/5.2-GNUARM-NONE_v16.01/../../../../arm-none-eabi/lib/armv7-ar/thumb/fpu\libc.a(lib_a-dtoa.o)
 .bss           0x2003c0e8        0x0 c:/program files (x86)/kpit/gnuarm-nonev16.01-eabi/arm-none-eabi/arm-none-eabi/bin/../lib/gcc/arm-none-eabi/5.2-GNUARM-NONE_v16.01/../../../../arm-none-eabi/lib/armv7-ar/thumb/fpu\libc.a(lib_a-errno.o)
 .bss           0x2003c0e8        0x0 c:/program files (x86)/kpit/gnuarm-nonev16.01-eabi/arm-none-eabi/arm-none-eabi/bin/../lib/gcc/arm-none-eabi/5.2-GNUARM-NONE_v16.01/../../../../arm-none-eabi/lib/armv7-ar/thumb/fpu\libc.a(lib_a-fflush.o)
 .bss           0x2003c0e8        0x0 c:/program files (x86)/kpit/gnuarm-nonev16.01-eabi/arm-none-eabi/arm-none-eabi/bin/../lib/gcc/arm-none-eabi/5.2-GNUARM-NONE_v16.01/../../../../arm-none-eabi/lib/armv7-ar/thumb/fpu\libc.a(lib_a-findfp.o)
 .bss           0x2003c0e8        0x0 c:/program files (x86)/kpit/gnuarm-nonev16.01-eabi/arm-none-eabi/arm-none-eabi/bin/../lib/gcc/arm-none-eabi/5.2-GNUARM-NONE_v16.01/../../../../arm-none-eabi/lib/armv7-ar/thumb/fpu\libc.a(lib_a-freer.o)
 .bss           0x2003c0e8        0x0 c:/program files (x86)/kpit/gnuarm-nonev16.01-eabi/arm-none-eabi/arm-none-eabi/bin/../lib/gcc/arm-none-eabi/5.2-GNUARM-NONE_v16.01/../../../../arm-none-eabi/lib/armv7-ar/thumb/fpu\libc.a(lib_a-fwalk.o)
 .bss           0x2003c0e8        0x0 c:/program files (x86)/kpit/gnuarm-nonev16.01-eabi/arm-none-eabi/arm-none-eabi/bin/../lib/gcc/arm-none-eabi/5.2-GNUARM-NONE_v16.01/../../../../arm-none-eabi/lib/armv7-ar/thumb/fpu\libc.a(lib_a-getenv_r.o)
 .bss           0x2003c0e8        0x0 c:/program files (x86)/kpit/gnuarm-nonev16.01-eabi/arm-none-eabi/arm-none-eabi/bin/../lib/gcc/arm-none-eabi/5.2-GNUARM-NONE_v16.01/../../../../arm-none-eabi/lib/armv7-ar/thumb/fpu\libc.a(lib_a-gettzinfo.o)
 .bss           0x2003c0e8        0x0 c:/program files (x86)/kpit/gnuarm-nonev16.01-eabi/arm-none-eabi/arm-none-eabi/bin/../lib/gcc/arm-none-eabi/5.2-GNUARM-NONE_v16.01/../../../../arm-none-eabi/lib/armv7-ar/thumb/fpu\libc.a(lib_a-gmtime_r.o)
 .bss           0x2003c0e8        0xc c:/program files (x86)/kpit/gnuarm-nonev16.01-eabi/arm-none-eabi/arm-none-eabi/bin/../lib/gcc/arm-none-eabi/5.2-GNUARM-NONE_v16.01/../../../../arm-none-eabi/lib/armv7-ar/thumb/fpu\libc.a(lib_a-locale.o)
                0x2003c0e8                _PathLocale
                0x2003c0ec                __mlocale_changed
                0x2003c0f0                __nlocale_changed
 .bss           0x2003c0f4        0x0 c:/program files (x86)/kpit/gnuarm-nonev16.01-eabi/arm-none-eabi/arm-none-eabi/bin/../lib/gcc/arm-none-eabi/5.2-GNUARM-NONE_v16.01/../../../../arm-none-eabi/lib/armv7-ar/thumb/fpu\libc.a(lib_a-makebuf.o)
 .bss           0x2003c0f4        0x0 c:/program files (x86)/kpit/gnuarm-nonev16.01-eabi/arm-none-eabi/arm-none-eabi/bin/../lib/gcc/arm-none-eabi/5.2-GNUARM-NONE_v16.01/../../../../arm-none-eabi/lib/armv7-ar/thumb/fpu\libc.a(lib_a-malloc.o)
 .bss           0x2003c0f4       0x34 c:/program files (x86)/kpit/gnuarm-nonev16.01-eabi/arm-none-eabi/arm-none-eabi/bin/../lib/gcc/arm-none-eabi/5.2-GNUARM-NONE_v16.01/../../../../arm-none-eabi/lib/armv7-ar/thumb/fpu\libc.a(lib_a-mallocr.o)
                0x2003c0f4                __malloc_top_pad
                0x2003c0f8                __malloc_current_mallinfo
                0x2003c120                __malloc_max_sbrked_mem
                0x2003c124                __malloc_max_total_mem
 .bss           0x2003c128        0x0 c:/program files (x86)/kpit/gnuarm-nonev16.01-eabi/arm-none-eabi/arm-none-eabi/bin/../lib/gcc/arm-none-eabi/5.2-GNUARM-NONE_v16.01/../../../../arm-none-eabi/lib/armv7-ar/thumb/fpu\libc.a(lib_a-memchr-stub.o)
 .bss           0x2003c128        0x0 c:/program files (x86)/kpit/gnuarm-nonev16.01-eabi/arm-none-eabi/arm-none-eabi/bin/../lib/gcc/arm-none-eabi/5.2-GNUARM-NONE_v16.01/../../../../arm-none-eabi/lib/armv7-ar/thumb/fpu\libc.a(lib_a-mlock.o)
 .bss           0x2003c128        0x0 c:/program files (x86)/kpit/gnuarm-nonev16.01-eabi/arm-none-eabi/arm-none-eabi/bin/../lib/gcc/arm-none-eabi/5.2-GNUARM-NONE_v16.01/../../../../arm-none-eabi/lib/armv7-ar/thumb/fpu\libc.a(lib_a-mprec.o)
 .bss           0x2003c128        0x0 c:/program files (x86)/kpit/gnuarm-nonev16.01-eabi/arm-none-eabi/arm-none-eabi/bin/../lib/gcc/arm-none-eabi/5.2-GNUARM-NONE_v16.01/../../../../arm-none-eabi/lib/armv7-ar/thumb/fpu\libc.a(lib_a-sbrkr.o)
 .bss           0x2003c128        0x0 c:/program files (x86)/kpit/gnuarm-nonev16.01-eabi/arm-none-eabi/arm-none-eabi/bin/../lib/gcc/arm-none-eabi/5.2-GNUARM-NONE_v16.01/../../../../arm-none-eabi/lib/armv7-ar/thumb/fpu\libc.a(lib_a-s_fpclassify.o)
 .bss           0x2003c128        0x0 c:/program files (x86)/kpit/gnuarm-nonev16.01-eabi/arm-none-eabi/arm-none-eabi/bin/../lib/gcc/arm-none-eabi/5.2-GNUARM-NONE_v16.01/../../../../arm-none-eabi/lib/armv7-ar/thumb/fpu\libc.a(lib_a-siscanf.o)
 .bss           0x2003c128        0x0 c:/program files (x86)/kpit/gnuarm-nonev16.01-eabi/arm-none-eabi/arm-none-eabi/bin/../lib/gcc/arm-none-eabi/5.2-GNUARM-NONE_v16.01/../../../../arm-none-eabi/lib/armv7-ar/thumb/fpu\libc.a(lib_a-stdio.o)
 .bss           0x2003c128        0x0 c:/program files (x86)/kpit/gnuarm-nonev16.01-eabi/arm-none-eabi/arm-none-eabi/bin/../lib/gcc/arm-none-eabi/5.2-GNUARM-NONE_v16.01/../../../../arm-none-eabi/lib/armv7-ar/thumb/fpu\libc.a(lib_a-strcmp.o)
 .bss           0x2003c128        0x0 c:/program files (x86)/kpit/gnuarm-nonev16.01-eabi/arm-none-eabi/arm-none-eabi/bin/../lib/gcc/arm-none-eabi/5.2-GNUARM-NONE_v16.01/../../../../arm-none-eabi/lib/armv7-ar/thumb/fpu\libc.a(lib_a-strcpy.o)
 .bss           0x2003c128        0x0 c:/program files (x86)/kpit/gnuarm-nonev16.01-eabi/arm-none-eabi/arm-none-eabi/bin/../lib/gcc/arm-none-eabi/5.2-GNUARM-NONE_v16.01/../../../../arm-none-eabi/lib/armv7-ar/thumb/fpu\libc.a(lib_a-strlen.o)
 .bss           0x2003c128        0x0 c:/program files (x86)/kpit/gnuarm-nonev16.01-eabi/arm-none-eabi/arm-none-eabi/bin/../lib/gcc/arm-none-eabi/5.2-GNUARM-NONE_v16.01/../../../../arm-none-eabi/lib/armv7-ar/thumb/fpu\libc.a(lib_a-strncmp.o)
 .bss           0x2003c128        0x0 c:/program files (x86)/kpit/gnuarm-nonev16.01-eabi/arm-none-eabi/arm-none-eabi/bin/../lib/gcc/arm-none-eabi/5.2-GNUARM-NONE_v16.01/../../../../arm-none-eabi/lib/armv7-ar/thumb/fpu\libc.a(lib_a-strtoul.o)
 .bss           0x2003c128        0x0 c:/program files (x86)/kpit/gnuarm-nonev16.01-eabi/arm-none-eabi/arm-none-eabi/bin/../lib/gcc/arm-none-eabi/5.2-GNUARM-NONE_v16.01/../../../../arm-none-eabi/lib/armv7-ar/thumb/fpu\libc.a(lib_a-svfiscanf.o)
 .bss           0x2003c128        0x0 c:/program files (x86)/kpit/gnuarm-nonev16.01-eabi/arm-none-eabi/arm-none-eabi/bin/../lib/gcc/arm-none-eabi/5.2-GNUARM-NONE_v16.01/../../../../arm-none-eabi/lib/armv7-ar/thumb/fpu\libc.a(lib_a-ungetc.o)
 .bss           0x2003c128        0x0 c:/program files (x86)/kpit/gnuarm-nonev16.01-eabi/arm-none-eabi/arm-none-eabi/bin/../lib/gcc/arm-none-eabi/5.2-GNUARM-NONE_v16.01/../../../../arm-none-eabi/lib/armv7-ar/thumb/fpu\libc.a(lib_a-vfiprintf.o)
 .bss           0x2003c128        0x0 c:/program files (x86)/kpit/gnuarm-nonev16.01-eabi/arm-none-eabi/arm-none-eabi/bin/../lib/gcc/arm-none-eabi/5.2-GNUARM-NONE_v16.01/../../../../arm-none-eabi/lib/armv7-ar/thumb/fpu\libc.a(lib_a-writer.o)
 .bss           0x2003c128        0x0 c:/program files (x86)/kpit/gnuarm-nonev16.01-eabi/arm-none-eabi/arm-none-eabi/bin/../lib/gcc/arm-none-eabi/5.2-GNUARM-NONE_v16.01/../../../../arm-none-eabi/lib/armv7-ar/thumb/fpu\libc.a(lib_a-callocr.o)
 .bss           0x2003c128        0x0 c:/program files (x86)/kpit/gnuarm-nonev16.01-eabi/arm-none-eabi/arm-none-eabi/bin/../lib/gcc/arm-none-eabi/5.2-GNUARM-NONE_v16.01/../../../../arm-none-eabi/lib/armv7-ar/thumb/fpu\libc.a(lib_a-closer.o)
 .bss           0x2003c128        0x0 c:/program files (x86)/kpit/gnuarm-nonev16.01-eabi/arm-none-eabi/arm-none-eabi/bin/../lib/gcc/arm-none-eabi/5.2-GNUARM-NONE_v16.01/../../../../arm-none-eabi/lib/armv7-ar/thumb/fpu\libc.a(lib_a-ctype_.o)
 .bss           0x2003c128        0x4 c:/program files (x86)/kpit/gnuarm-nonev16.01-eabi/arm-none-eabi/arm-none-eabi/bin/../lib/gcc/arm-none-eabi/5.2-GNUARM-NONE_v16.01/../../../../arm-none-eabi/lib/armv7-ar/thumb/fpu\libc.a(lib_a-environ.o)
 .bss           0x2003c12c        0x0 c:/program files (x86)/kpit/gnuarm-nonev16.01-eabi/arm-none-eabi/arm-none-eabi/bin/../lib/gcc/arm-none-eabi/5.2-GNUARM-NONE_v16.01/../../../../arm-none-eabi/lib/armv7-ar/thumb/fpu\libc.a(lib_a-envlock.o)
 .bss           0x2003c12c        0x0 c:/program files (x86)/kpit/gnuarm-nonev16.01-eabi/arm-none-eabi/arm-none-eabi/bin/../lib/gcc/arm-none-eabi/5.2-GNUARM-NONE_v16.01/../../../../arm-none-eabi/lib/armv7-ar/thumb/fpu\libc.a(lib_a-fclose.o)
 .bss           0x2003c12c        0x0 c:/program files (x86)/kpit/gnuarm-nonev16.01-eabi/arm-none-eabi/arm-none-eabi/bin/../lib/gcc/arm-none-eabi/5.2-GNUARM-NONE_v16.01/../../../../arm-none-eabi/lib/armv7-ar/thumb/fpu\libc.a(lib_a-fputwc.o)
 .bss           0x2003c12c        0x0 c:/program files (x86)/kpit/gnuarm-nonev16.01-eabi/arm-none-eabi/arm-none-eabi/bin/../lib/gcc/arm-none-eabi/5.2-GNUARM-NONE_v16.01/../../../../arm-none-eabi/lib/armv7-ar/thumb/fpu\libc.a(lib_a-fstatr.o)
 .bss           0x2003c12c        0x0 c:/program files (x86)/kpit/gnuarm-nonev16.01-eabi/arm-none-eabi/arm-none-eabi/bin/../lib/gcc/arm-none-eabi/5.2-GNUARM-NONE_v16.01/../../../../arm-none-eabi/lib/armv7-ar/thumb/fpu\libc.a(lib_a-fvwrite.o)
 .bss           0x2003c12c        0x0 c:/program files (x86)/kpit/gnuarm-nonev16.01-eabi/arm-none-eabi/arm-none-eabi/bin/../lib/gcc/arm-none-eabi/5.2-GNUARM-NONE_v16.01/../../../../arm-none-eabi/lib/armv7-ar/thumb/fpu\libc.a(lib_a-isattyr.o)
 .bss           0x2003c12c        0x0 c:/program files (x86)/kpit/gnuarm-nonev16.01-eabi/arm-none-eabi/arm-none-eabi/bin/../lib/gcc/arm-none-eabi/5.2-GNUARM-NONE_v16.01/../../../../arm-none-eabi/lib/armv7-ar/thumb/fpu\libc.a(lib_a-iswspace.o)
 .bss           0x2003c12c        0x0 c:/program files (x86)/kpit/gnuarm-nonev16.01-eabi/arm-none-eabi/arm-none-eabi/bin/../lib/gcc/arm-none-eabi/5.2-GNUARM-NONE_v16.01/../../../../arm-none-eabi/lib/armv7-ar/thumb/fpu\libc.a(lib_a-lseekr.o)
 .bss           0x2003c12c        0x0 c:/program files (x86)/kpit/gnuarm-nonev16.01-eabi/arm-none-eabi/arm-none-eabi/bin/../lib/gcc/arm-none-eabi/5.2-GNUARM-NONE_v16.01/../../../../arm-none-eabi/lib/armv7-ar/thumb/fpu\libc.a(lib_a-mbrtowc.o)
 .bss           0x2003c12c        0x0 c:/program files (x86)/kpit/gnuarm-nonev16.01-eabi/arm-none-eabi/arm-none-eabi/bin/../lib/gcc/arm-none-eabi/5.2-GNUARM-NONE_v16.01/../../../../arm-none-eabi/lib/armv7-ar/thumb/fpu\libc.a(lib_a-mbtowc_r.o)
 .bss           0x2003c12c        0x0 c:/program files (x86)/kpit/gnuarm-nonev16.01-eabi/arm-none-eabi/arm-none-eabi/bin/../lib/gcc/arm-none-eabi/5.2-GNUARM-NONE_v16.01/../../../../arm-none-eabi/lib/armv7-ar/thumb/fpu\libc.a(lib_a-readr.o)
 .bss           0x2003c12c        0x0 c:/program files (x86)/kpit/gnuarm-nonev16.01-eabi/arm-none-eabi/arm-none-eabi/bin/../lib/gcc/arm-none-eabi/5.2-GNUARM-NONE_v16.01/../../../../arm-none-eabi/lib/armv7-ar/thumb/fpu\libc.a(lib_a-reallocr.o)
 .bss           0x2003c12c        0x0 c:/program files (x86)/kpit/gnuarm-nonev16.01-eabi/arm-none-eabi/arm-none-eabi/bin/../lib/gcc/arm-none-eabi/5.2-GNUARM-NONE_v16.01/../../../../arm-none-eabi/lib/armv7-ar/thumb/fpu\libc.a(lib_a-reent.o)
 .bss           0x2003c12c        0x0 c:/program files (x86)/kpit/gnuarm-nonev16.01-eabi/arm-none-eabi/arm-none-eabi/bin/../lib/gcc/arm-none-eabi/5.2-GNUARM-NONE_v16.01/../../../../arm-none-eabi/lib/armv7-ar/thumb/fpu\libc.a(lib_a-sccl.o)
 .bss           0x2003c12c        0x0 c:/program files (x86)/kpit/gnuarm-nonev16.01-eabi/arm-none-eabi/arm-none-eabi/bin/../lib/gcc/arm-none-eabi/5.2-GNUARM-NONE_v16.01/../../../../arm-none-eabi/lib/armv7-ar/thumb/fpu\libc.a(lib_a-strtol.o)
 .bss           0x2003c12c        0x0 c:/program files (x86)/kpit/gnuarm-nonev16.01-eabi/arm-none-eabi/arm-none-eabi/bin/../lib/gcc/arm-none-eabi/5.2-GNUARM-NONE_v16.01/../../../../arm-none-eabi/lib/armv7-ar/thumb/fpu\libc.a(lib_a-wbuf.o)
 .bss           0x2003c12c        0x0 c:/program files (x86)/kpit/gnuarm-nonev16.01-eabi/arm-none-eabi/arm-none-eabi/bin/../lib/gcc/arm-none-eabi/5.2-GNUARM-NONE_v16.01/../../../../arm-none-eabi/lib/armv7-ar/thumb/fpu\libc.a(lib_a-wcrtomb.o)
 .bss           0x2003c12c        0x0 c:/program files (x86)/kpit/gnuarm-nonev16.01-eabi/arm-none-eabi/arm-none-eabi/bin/../lib/gcc/arm-none-eabi/5.2-GNUARM-NONE_v16.01/../../../../arm-none-eabi/lib/armv7-ar/thumb/fpu\libc.a(lib_a-wctomb_r.o)
 .bss           0x2003c12c        0x0 c:/program files (x86)/kpit/gnuarm-nonev16.01-eabi/arm-none-eabi/arm-none-eabi/bin/../lib/gcc/arm-none-eabi/5.2-GNUARM-NONE_v16.01/armv7-ar/thumb/fpu\libgcc.a(_udivsi3.o)
 .bss           0x2003c12c        0x0 c:/program files (x86)/kpit/gnuarm-nonev16.01-eabi/arm-none-eabi/arm-none-eabi/bin/../lib/gcc/arm-none-eabi/5.2-GNUARM-NONE_v16.01/armv7-ar/thumb/fpu\libgcc.a(_divsi3.o)
 .bss           0x2003c12c        0x0 c:/program files (x86)/kpit/gnuarm-nonev16.01-eabi/arm-none-eabi/arm-none-eabi/bin/../lib/gcc/arm-none-eabi/5.2-GNUARM-NONE_v16.01/armv7-ar/thumb/fpu\libgcc.a(_dvmd_tls.o)
 .bss           0x2003c12c        0x0 c:/program files (x86)/kpit/gnuarm-nonev16.01-eabi/arm-none-eabi/arm-none-eabi/bin/../lib/gcc/arm-none-eabi/5.2-GNUARM-NONE_v16.01/armv7-ar/thumb/fpu\libgcc.a(_aeabi_uldivmod.o)
 .bss           0x2003c12c        0x0 c:/program files (x86)/kpit/gnuarm-nonev16.01-eabi/arm-none-eabi/arm-none-eabi/bin/../lib/gcc/arm-none-eabi/5.2-GNUARM-NONE_v16.01/armv7-ar/thumb/fpu\libgcc.a(_udivmoddi4.o)
 *(COMMON)
 COMMON         0x2003c12c      0x430 sample1n.o
                0x2003c12c                tcp_rwbuf
                0x2003c32c                dst
                0x2003c334                tcp_swbuf
                0x2003c534                addr
 COMMON         0x2003c55c        0xc sample1.o
                0x2003c55c                message
                0x2003c560                task_loop
                0x2003c564                cpuexc_tskid
 COMMON         0x2003c568      0x234 tSerialPortMain_tecsgen.o
                0x2003c568                tSerialPortMain_SerialPort1_SerialPortMain_CB_receiveBuffer_INIT
                0x2003c668                tSerialPortMain_SerialPort1_SerialPortMain_CB_sendBuffer_INIT
                0x2003c768                tSerialPortMain_CB_tab
 COMMON         0x2003c79c      0x41c tSysLog_tecsgen.o
                0x2003c79c                tSysLog_SINGLE_CELL_CB
                0x2003c7b8                tSysLog_SINGLE_CELL_CB_logBuffer_INIT
 COMMON         0x2003cbb8        0x8 tSCIF_tecsgen.o
                0x2003cbb8                tSCIF_CB_tab
 COMMON         0x2003cbc0        0x1 gpio_irq_api.o
                0x2003cbc0                IRQNo
 *fill*         0x2003cbc1        0x3 
 COMMON         0x2003cbc4        0x8 serial_api.o
                0x2003cbc4                stdio_uart
 COMMON         0x2003cbcc      0x128 net_count.o
                0x2003cbcc                net_count_tcp
                0x2003cc2c                net_count_ether
                0x2003cc44                net_count_icmp4
                0x2003cc5c                net_count_ip4
                0x2003ccac                net_count_ether_nic
                0x2003ccdc                net_count_arp
 COMMON         0x2003ccf4       0xd8 tcp_input.o
                0x2003ccf4                _tinet_tcp_twcep
 *fill*         0x2003cdcc        0x4 
 COMMON         0x2003cdd0     0x85e0 kernel_cfg.o
                0x2003cdd0                _kernel_isrcb_table
                0x2003cdf4                _kernel_isr_queue_table
                0x2003ce0c                _kernel_cyccb_table
                0x2003ce3c                _kernel_pdqinib_table
                0x2003ce40                _kernel_stack_ETHER_INPUT_TASK
                0x2003d240                _kernel_apdqinib_table
                0x2003d240                _kernel_stack_TSKID_tTask_LogTask_Task
                0x2003d240                _kernel_mtxcb_table
                0x2003e240                _kernel_pdqcb_table
                0x2003e240                _kernel_stack_MAIN_TASK
                0x2003f240                _kernel_stack_TASK1
                0x2003f240                _kernel_ampfinib_table
                0x20040240                _kernel_acyc_nfyinfo_table
                0x20040240                _kernel_dtqcb_table
                0x20040240                _kernel_aisrinib_table
                0x20040260                _kernel_aalm_nfyinfo_table
                0x20040274                _kernel_atinib_table
                0x200402bc                _kernel_semcb_table
                0x200403cc                _kernel_alminib_table
                0x200403cc                _kernel_tmevt_heap
                0x20040410                _kernel_istack
                0x20042410                _kernel_almcb_table
                0x20042428                _kernel_mtxinib_table
                0x20042428                _kernel_aflginib_table
                0x20042428                _kernel_amtxinib_table
                0x20042428                _kernel_stack_IF_MBED_PHY_TASK
                0x20042528                _kernel_stack_ETHER_OUTPUT_TASK
                0x20042928                _kernel_aalminib_table
                0x20042938                _kernel_stack_TCP_OUTPUT_TASK
                0x20042d38                _kernel_mpfcb_table
                0x20042de0                _kernel_tcb_table
                0x20042f80                _kernel_stack_TASK2
                0x20043f80                _kernel_stack_NET_TIMER_TASK
                0x20044380                _kernel_acycinib_table
                0x20044380                _kernel_flgcb_table
                0x20044380                _kernel_aseminib_table
                0x200443b0                _kernel_stack_EXC_TASK
                0x200453b0                _kernel_adtqinib_table
 COMMON         0x200453b0        0x4 .\libkernel.a(core_kernel_impl.o)
                0x200453b0                _kernel_excpt_nest_count
 COMMON         0x200453b4       0x9c .\libkernel.a(task.o)
                0x200453b4                _kernel_p_schedtsk
                0x200453b8                _kernel_ready_queue
                0x20045438                _kernel_dspflg
                0x2004543c                _kernel_ready_primap
                0x20045440                _kernel_free_tcb
                0x20045448                _kernel_p_runtsk
                0x2004544c                _kernel_enadsp
 COMMON         0x20045450       0x20 .\libkernel.a(time_event.o)
                0x20045450                _kernel_monotonic_evttim
                0x20045454                _kernel_in_signal_time
                0x20045458                _kernel_boundary_evttim
                0x2004545c                _kernel_current_evttim
                0x20045460                _kernel_current_hrtcnt
                0x20045468                _kernel_systim_offset
 COMMON         0x20045470        0x8 .\libkernel.a(semaphore.o)
                0x20045470                _kernel_free_semcb
 COMMON         0x20045478        0x8 .\libkernel.a(eventflag.o)
                0x20045478                _kernel_free_flgcb
 COMMON         0x20045480        0x8 .\libkernel.a(dataqueue.o)
                0x20045480                _kernel_free_dtqcb
 COMMON         0x20045488        0x8 .\libkernel.a(mempfix.o)
                0x20045488                _kernel_free_mpfcb
 COMMON         0x20045490        0x8 .\libkernel.a(cyclic.o)
                0x20045490                _kernel_free_cyccb
 COMMON         0x20045498        0x8 .\libkernel.a(alarm.o)
                0x20045498                _kernel_free_almcb
 COMMON         0x200454a0        0x8 .\libkernel.a(interrupt.o)
                0x200454a0                _kernel_free_isrcb
 COMMON         0x200454a8        0x4 c:/program files (x86)/kpit/gnuarm-nonev16.01-eabi/arm-none-eabi/arm-none-eabi/bin/../lib/gcc/arm-none-eabi/5.2-GNUARM-NONE_v16.01/../../../../arm-none-eabi/lib/armv7-ar/thumb/fpu\libc.a(lib_a-reent.o)
                0x200454a8                errno
                0x200454ac                __bss_end__ = .
                0x200454ac                Image$$ZI_DATA$$Limit = .

.heap           0x200454b0    0x80000
                0x200454b0                __end__ = .
                0x200454b0                end = __end__
 *(.heap*)
 .heap          0x200454b0    0x80000 startup_RZ1AH.o
                0x200454b0                __HeapBase
                0x200c54b0                __HeapLimit = .

.stack_dummy    0x200454b0    0x14300
 *(.stack)
 .stack         0x200454b0    0x14300 startup_RZ1AH.o
                0x1802f44c                __etext2 = (__etext + SIZEOF (.data))

.nc_data        0x20900000        0x0 load address 0x1802f44c
                0x20900000                Image$$RW_DATA_NC$$Base = .
                0x20900000                __nc_data_start = .
 *(NC_DATA)
                0x20900000                . = ALIGN (0x4)
                0x20900000                __nc_data_end = .
                0x20900000                Image$$RW_DATA_NC$$Limit = .

.nc_bss         0x20900000     0xca00
                0x20900000                Image$$ZI_DATA_NC$$Base = .
                0x20900000                __nc_bss_start = .
 *(NC_BSS)
 NC_BSS         0x20900000     0xca00 ethernet_api.o
                0x2090ca00                . = ALIGN (0x4)
                0x2090ca00                __nc_bss_end = .
                0x2090ca00                Image$$ZI_DATA_NC$$Limit = .
                0x20720000                __StackTop = (ORIGIN (RAM) + LENGTH (RAM))
                0x2070bd00                __StackLimit = (__StackTop - SIZEOF (.stack_dummy))
                [!provide]                PROVIDE (__stack, __StackTop)
                0x00000001                ASSERT ((__StackLimit >= __HeapLimit), region RAM overflowed with stack)
OUTPUT(asp.elf elf32-littlearm)

.ARM.attributes
                0x00000000       0x33
 .ARM.attributes
                0x00000000       0x23 startup_RZ1AH.o
 .ARM.attributes
                0x00000023       0x3d sample1n.o
 .ARM.attributes
                0x00000060       0x3d sample1.o
 .ARM.attributes
                0x0000009d       0x3d log_output.o
 .ARM.attributes
                0x000000da       0x3d vasyslog.o
 .ARM.attributes
                0x00000117       0x3d t_perror.o
 .ARM.attributes
                0x00000154       0x3d strerror.o
 .ARM.attributes
                0x00000191       0x23 cache.o
 .ARM.attributes
                0x000001b4       0x3d init_tecs.o
 .ARM.attributes
                0x000001f1       0x3d tTask_tecsgen.o
 .ARM.attributes
                0x0000022e       0x3d tSemaphore_tecsgen.o
 .ARM.attributes
                0x0000026b       0x3d tInterruptRequest_tecsgen.o
 .ARM.attributes
                0x000002a8       0x3d tISR_tecsgen.o
 .ARM.attributes
                0x000002e5       0x3d tInitializeRoutine_tecsgen.o
 .ARM.attributes
                0x00000322       0x3d tTerminateRoutine_tecsgen.o
 .ARM.attributes
                0x0000035f       0x3d tSerialPortMain_tecsgen.o
 .ARM.attributes
                0x0000039c       0x3d tSerialAdapter_tecsgen.o
 .ARM.attributes
                0x000003d9       0x3d tSysLog_tecsgen.o
 .ARM.attributes
                0x00000416       0x3d tSysLogAdapter_tecsgen.o
 .ARM.attributes
                0x00000453       0x3d tLogTaskMain_tecsgen.o
 .ARM.attributes
                0x00000490       0x3d tBannerMain_tecsgen.o
 .ARM.attributes
                0x000004cd       0x3d tPutLogGRPeach_tecsgen.o
 .ARM.attributes
                0x0000050a       0x3d tSCIF_tecsgen.o
 .ARM.attributes
                0x00000547       0x3d tSIOPortGRPeachMain_tecsgen.o
 .ARM.attributes
                0x00000584       0x3d tTask.o
 .ARM.attributes
                0x000005c1       0x3d tISR.o
 .ARM.attributes
                0x000005fe       0x3d tInitializeRoutine.o
 .ARM.attributes
                0x0000063b       0x3d tTerminateRoutine.o
 .ARM.attributes
                0x00000678       0x3d tSerialPortMain.o
 .ARM.attributes
                0x000006b5       0x3d tSerialAdapter.o
 .ARM.attributes
                0x000006f2       0x3d tSysLog.o
 .ARM.attributes
                0x0000072f       0x3d tSysLogAdapter.o
 .ARM.attributes
                0x0000076c       0x3d tLogTaskMain.o
 .ARM.attributes
                0x000007a9       0x3d tBannerMain.o
 .ARM.attributes
                0x000007e6       0x3d tPutLogGRPeach.o
 .ARM.attributes
                0x00000823       0x3d tSCIF.o
 .ARM.attributes
                0x00000860       0x3d assert.o
 .ARM.attributes
                0x0000089d       0x3d board.o
 .ARM.attributes
                0x000008da       0x3d error.o
 .ARM.attributes
                0x00000917       0x3d gpio.o
 .ARM.attributes
                0x00000954       0x3d lp_ticker_api.o
 .ARM.attributes
                0x00000991       0x3d mbed_interface.o
 .ARM.attributes
                0x000009ce       0x3d pinmap_common.o
 .ARM.attributes
                0x00000a0b       0x3d rtc_time.o
 .ARM.attributes
                0x00000a48       0x3d semihost_api.o
 .ARM.attributes
                0x00000a85       0x3d ticker_api.o
 .ARM.attributes
                0x00000ac2       0x3d us_ticker_api.o
 .ARM.attributes
                0x00000aff       0x3d RZ_A1_Init.o
 .ARM.attributes
                0x00000b3c       0x3d cmsis_nvic.o
 .ARM.attributes
                0x00000b79       0x3d gic.o
 .ARM.attributes
                0x00000bb6       0x3d mbed_sf_boot.o
 .ARM.attributes
                0x00000bf3       0x3d mmu_Renesas_RZ_A1.o
 .ARM.attributes
                0x00000c30       0x3d nvic_wrapper.o
 .ARM.attributes
                0x00000c6d       0x3d pl310.o
 .ARM.attributes
                0x00000caa       0x3d rza_io_regrw.o
 .ARM.attributes
                0x00000ce7       0x3d system_MBRZA1H.o
 .ARM.attributes
                0x00000d24       0x3d analogin_api.o
 .ARM.attributes
                0x00000d61       0x3d can_api.o
 .ARM.attributes
                0x00000d9e       0x3d ethernet_api.o
 .ARM.attributes
                0x00000ddb       0x3d gpio_api.o
 .ARM.attributes
                0x00000e18       0x3d gpio_irq_api.o
 .ARM.attributes
                0x00000e55       0x3d i2c_api.o
 .ARM.attributes
                0x00000e92       0x3d pinmap.o
 .ARM.attributes
                0x00000ecf       0x3d port_api.o
 .ARM.attributes
                0x00000f0c       0x3d pwmout_api.o
 .ARM.attributes
                0x00000f49       0x3d rtc_api.o
 .ARM.attributes
                0x00000f86       0x3d serial_api.o
 .ARM.attributes
                0x00000fc3       0x3d spi_api.o
 .ARM.attributes
                0x00001000       0x3d net_buf.o
 .ARM.attributes
                0x0000103d       0x3d net_count.o
 .ARM.attributes
                0x0000107a       0x3d net_subr.o
 .ARM.attributes
                0x000010b7       0x3d net_timer.o
 .ARM.attributes
                0x000010f4       0x3d in_subr.o
 .ARM.attributes
                0x00001131       0x3d tinet_cfg.o
 .ARM.attributes
                0x0000116e       0x3d route_cfg.o
 .ARM.attributes
                0x000011ab       0x3d ip_input.o
 .ARM.attributes
                0x000011e8       0x3d ip_output.o
 .ARM.attributes
                0x00001225       0x3d ip_icmp.o
 .ARM.attributes
                0x00001262       0x3d tinet_target_config.o
 .ARM.attributes
                0x0000129f       0x3d if.o
 .ARM.attributes
                0x000012dc       0x3d ethernet.o
 .ARM.attributes
                0x00001319       0x3d if_ether.o
 .ARM.attributes
                0x00001356       0x3d if_mbed.o
 .ARM.attributes
                0x00001393       0x3d tcp_input.o
 .ARM.attributes
                0x000013d0       0x3d tcp_output.o
 .ARM.attributes
                0x0000140d       0x3d tcp_timer.o
 .ARM.attributes
                0x0000144a       0x3d tcp_subr.o
 .ARM.attributes
                0x00001487       0x3d tcp_subr_cs.o
 .ARM.attributes
                0x000014c4       0x3d tcp_subr_ncs.o
 .ARM.attributes
                0x00001501       0x3d tcp_usrreq.o
 .ARM.attributes
                0x0000153e       0x3d kernel_cfg.o
 .ARM.attributes
                0x0000157b       0x23 .\libkernel.a(core_support.o)
 .ARM.attributes
                0x0000159e       0x3d .\libkernel.a(target_kernel_impl.o)
 .ARM.attributes
                0x000015db       0x3d .\libkernel.a(chip_kernel_impl.o)
 .ARM.attributes
                0x00001618       0x3d .\libkernel.a(gic_kernel_impl.o)
 .ARM.attributes
                0x00001655       0x3d .\libkernel.a(chip_timer.o)
 .ARM.attributes
                0x00001692       0x3d .\libkernel.a(core_kernel_impl.o)
 .ARM.attributes
                0x000016cf       0x3d .\libkernel.a(arm.o)
 .ARM.attributes
                0x0000170c       0x3d .\libkernel.a(startup.o)
 .ARM.attributes
                0x00001749       0x3d .\libkernel.a(task.o)
 .ARM.attributes
                0x00001786       0x3d .\libkernel.a(taskhook.o)
 .ARM.attributes
                0x000017c3       0x3d .\libkernel.a(time_event.o)
 .ARM.attributes
                0x00001800       0x3d .\libkernel.a(task_manage.o)
 .ARM.attributes
                0x0000183d       0x3d .\libkernel.a(task_sync.o)
 .ARM.attributes
                0x0000187a       0x3d .\libkernel.a(task_term.o)
 .ARM.attributes
                0x000018b7       0x3d .\libkernel.a(semaphore.o)
 .ARM.attributes
                0x000018f4       0x3d .\libkernel.a(eventflag.o)
 .ARM.attributes
                0x00001931       0x3d .\libkernel.a(dataqueue.o)
 .ARM.attributes
                0x0000196e       0x3d .\libkernel.a(mempfix.o)
 .ARM.attributes
                0x000019ab       0x3d .\libkernel.a(time_manage.o)
 .ARM.attributes
                0x000019e8       0x3d .\libkernel.a(cyclic.o)
 .ARM.attributes
                0x00001a25       0x3d .\libkernel.a(alarm.o)
 .ARM.attributes
                0x00001a62       0x3d .\libkernel.a(sys_manage.o)
 .ARM.attributes
                0x00001a9f       0x3d .\libkernel.a(interrupt.o)
 .ARM.attributes
                0x00001adc       0x3d .\libkernel.a(exception.o)
 .ARM.attributes
                0x00001b19       0x23 .\libkernel.a(gic_support.o)
 .ARM.attributes
                0x00001b3c       0x3d .\libkernel.a(wait.o)
 .ARM.attributes
                0x00001b79       0x2d c:/program files (x86)/kpit/gnuarm-nonev16.01-eabi/arm-none-eabi/arm-none-eabi/bin/../lib/gcc/arm-none-eabi/5.2-GNUARM-NONE_v16.01/../../../../arm-none-eabi/lib/armv7-ar/thumb/fpu\libc.a(lib_a-exit.o)
 .ARM.attributes
                0x00001ba6       0x2d c:/program files (x86)/kpit/gnuarm-nonev16.01-eabi/arm-none-eabi/arm-none-eabi/bin/../lib/gcc/arm-none-eabi/5.2-GNUARM-NONE_v16.01/../../../../arm-none-eabi/lib/armv7-ar/thumb/fpu\libc.a(lib_a-impure.o)
 .ARM.attributes
                0x00001bd3       0x2d c:/program files (x86)/kpit/gnuarm-nonev16.01-eabi/arm-none-eabi/arm-none-eabi/bin/../lib/gcc/arm-none-eabi/5.2-GNUARM-NONE_v16.01/../../../../arm-none-eabi/lib/armv7-ar/thumb/fpu\libc.a(lib_a-lcltime.o)
 .ARM.attributes
                0x00001c00       0x2d c:/program files (x86)/kpit/gnuarm-nonev16.01-eabi/arm-none-eabi/arm-none-eabi/bin/../lib/gcc/arm-none-eabi/5.2-GNUARM-NONE_v16.01/../../../../arm-none-eabi/lib/armv7-ar/thumb/fpu\libc.a(lib_a-lcltime_r.o)
 .ARM.attributes
                0x00001c2d       0x2d c:/program files (x86)/kpit/gnuarm-nonev16.01-eabi/arm-none-eabi/arm-none-eabi/bin/../lib/gcc/arm-none-eabi/5.2-GNUARM-NONE_v16.01/../../../../arm-none-eabi/lib/armv7-ar/thumb/fpu\libc.a(lib_a-memcmp.o)
 .ARM.attributes
                0x00001c5a       0x2d c:/program files (x86)/kpit/gnuarm-nonev16.01-eabi/arm-none-eabi/arm-none-eabi/bin/../lib/gcc/arm-none-eabi/5.2-GNUARM-NONE_v16.01/../../../../arm-none-eabi/lib/armv7-ar/thumb/fpu\libc.a(lib_a-memcpy-stub.o)
 .ARM.attributes
                0x00001c87       0x2d c:/program files (x86)/kpit/gnuarm-nonev16.01-eabi/arm-none-eabi/arm-none-eabi/bin/../lib/gcc/arm-none-eabi/5.2-GNUARM-NONE_v16.01/../../../../arm-none-eabi/lib/armv7-ar/thumb/fpu\libc.a(lib_a-memmove.o)
 .ARM.attributes
                0x00001cb4       0x2d c:/program files (x86)/kpit/gnuarm-nonev16.01-eabi/arm-none-eabi/arm-none-eabi/bin/../lib/gcc/arm-none-eabi/5.2-GNUARM-NONE_v16.01/../../../../arm-none-eabi/lib/armv7-ar/thumb/fpu\libc.a(lib_a-memset.o)
 .ARM.attributes
                0x00001ce1       0x2d c:/program files (x86)/kpit/gnuarm-nonev16.01-eabi/arm-none-eabi/arm-none-eabi/bin/../lib/gcc/arm-none-eabi/5.2-GNUARM-NONE_v16.01/../../../../arm-none-eabi/lib/armv7-ar/thumb/fpu\libc.a(lib_a-mktime.o)
 .ARM.attributes
                0x00001d0e       0x2d c:/program files (x86)/kpit/gnuarm-nonev16.01-eabi/arm-none-eabi/arm-none-eabi/bin/../lib/gcc/arm-none-eabi/5.2-GNUARM-NONE_v16.01/../../../../arm-none-eabi/lib/armv7-ar/thumb/fpu\libc.a(lib_a-month_lengths.o)
 .ARM.attributes
                0x00001d3b       0x2d c:/program files (x86)/kpit/gnuarm-nonev16.01-eabi/arm-none-eabi/arm-none-eabi/bin/../lib/gcc/arm-none-eabi/5.2-GNUARM-NONE_v16.01/../../../../arm-none-eabi/lib/armv7-ar/thumb/fpu\libc.a(lib_a-syscalls.o)
 .ARM.attributes
                0x00001d68       0x2d c:/program files (x86)/kpit/gnuarm-nonev16.01-eabi/arm-none-eabi/arm-none-eabi/bin/../lib/gcc/arm-none-eabi/5.2-GNUARM-NONE_v16.01/../../../../arm-none-eabi/lib/armv7-ar/thumb/fpu\libc.a(lib_a-tzcalc_limits.o)
 .ARM.attributes
                0x00001d95       0x2d c:/program files (x86)/kpit/gnuarm-nonev16.01-eabi/arm-none-eabi/arm-none-eabi/bin/../lib/gcc/arm-none-eabi/5.2-GNUARM-NONE_v16.01/../../../../arm-none-eabi/lib/armv7-ar/thumb/fpu\libc.a(lib_a-tzlock.o)
 .ARM.attributes
                0x00001dc2       0x2d c:/program files (x86)/kpit/gnuarm-nonev16.01-eabi/arm-none-eabi/arm-none-eabi/bin/../lib/gcc/arm-none-eabi/5.2-GNUARM-NONE_v16.01/../../../../arm-none-eabi/lib/armv7-ar/thumb/fpu\libc.a(lib_a-tzset.o)
 .ARM.attributes
                0x00001def       0x2d c:/program files (x86)/kpit/gnuarm-nonev16.01-eabi/arm-none-eabi/arm-none-eabi/bin/../lib/gcc/arm-none-eabi/5.2-GNUARM-NONE_v16.01/../../../../arm-none-eabi/lib/armv7-ar/thumb/fpu\libc.a(lib_a-tzset_r.o)
 .ARM.attributes
                0x00001e1c       0x2d c:/program files (x86)/kpit/gnuarm-nonev16.01-eabi/arm-none-eabi/arm-none-eabi/bin/../lib/gcc/arm-none-eabi/5.2-GNUARM-NONE_v16.01/../../../../arm-none-eabi/lib/armv7-ar/thumb/fpu\libc.a(lib_a-tzvars.o)
 .ARM.attributes
                0x00001e49       0x2d c:/program files (x86)/kpit/gnuarm-nonev16.01-eabi/arm-none-eabi/arm-none-eabi/bin/../lib/gcc/arm-none-eabi/5.2-GNUARM-NONE_v16.01/../../../../arm-none-eabi/lib/armv7-ar/thumb/fpu\libc.a(lib_a-vfprintf.o)
 .ARM.attributes
                0x00001e76       0x2d c:/program files (x86)/kpit/gnuarm-nonev16.01-eabi/arm-none-eabi/arm-none-eabi/bin/../lib/gcc/arm-none-eabi/5.2-GNUARM-NONE_v16.01/../../../../arm-none-eabi/lib/armv7-ar/thumb/fpu\libc.a(lib_a-wsetup.o)
 .ARM.attributes
                0x00001ea3       0x2d c:/program files (x86)/kpit/gnuarm-nonev16.01-eabi/arm-none-eabi/arm-none-eabi/bin/../lib/gcc/arm-none-eabi/5.2-GNUARM-NONE_v16.01/../../../../arm-none-eabi/lib/armv7-ar/thumb/fpu\libc.a(lib_a-__call_atexit.o)
 .ARM.attributes
                0x00001ed0       0x2d c:/program files (x86)/kpit/gnuarm-nonev16.01-eabi/arm-none-eabi/arm-none-eabi/bin/../lib/gcc/arm-none-eabi/5.2-GNUARM-NONE_v16.01/../../../../arm-none-eabi/lib/armv7-ar/thumb/fpu\libc.a(lib_a-div.o)
 .ARM.attributes
                0x00001efd       0x2d c:/program files (x86)/kpit/gnuarm-nonev16.01-eabi/arm-none-eabi/arm-none-eabi/bin/../lib/gcc/arm-none-eabi/5.2-GNUARM-NONE_v16.01/../../../../arm-none-eabi/lib/armv7-ar/thumb/fpu\libc.a(lib_a-dtoa.o)
 .ARM.attributes
                0x00001f2a       0x2d c:/program files (x86)/kpit/gnuarm-nonev16.01-eabi/arm-none-eabi/arm-none-eabi/bin/../lib/gcc/arm-none-eabi/5.2-GNUARM-NONE_v16.01/../../../../arm-none-eabi/lib/armv7-ar/thumb/fpu\libc.a(lib_a-errno.o)
 .ARM.attributes
                0x00001f57       0x2d c:/program files (x86)/kpit/gnuarm-nonev16.01-eabi/arm-none-eabi/arm-none-eabi/bin/../lib/gcc/arm-none-eabi/5.2-GNUARM-NONE_v16.01/../../../../arm-none-eabi/lib/armv7-ar/thumb/fpu\libc.a(lib_a-fflush.o)
 .ARM.attributes
                0x00001f84       0x2d c:/program files (x86)/kpit/gnuarm-nonev16.01-eabi/arm-none-eabi/arm-none-eabi/bin/../lib/gcc/arm-none-eabi/5.2-GNUARM-NONE_v16.01/../../../../arm-none-eabi/lib/armv7-ar/thumb/fpu\libc.a(lib_a-findfp.o)
 .ARM.attributes
                0x00001fb1       0x2d c:/program files (x86)/kpit/gnuarm-nonev16.01-eabi/arm-none-eabi/arm-none-eabi/bin/../lib/gcc/arm-none-eabi/5.2-GNUARM-NONE_v16.01/../../../../arm-none-eabi/lib/armv7-ar/thumb/fpu\libc.a(lib_a-freer.o)
 .ARM.attributes
                0x00001fde       0x2d c:/program files (x86)/kpit/gnuarm-nonev16.01-eabi/arm-none-eabi/arm-none-eabi/bin/../lib/gcc/arm-none-eabi/5.2-GNUARM-NONE_v16.01/../../../../arm-none-eabi/lib/armv7-ar/thumb/fpu\libc.a(lib_a-fwalk.o)
 .ARM.attributes
                0x0000200b       0x2d c:/program files (x86)/kpit/gnuarm-nonev16.01-eabi/arm-none-eabi/arm-none-eabi/bin/../lib/gcc/arm-none-eabi/5.2-GNUARM-NONE_v16.01/../../../../arm-none-eabi/lib/armv7-ar/thumb/fpu\libc.a(lib_a-getenv_r.o)
 .ARM.attributes
                0x00002038       0x2d c:/program files (x86)/kpit/gnuarm-nonev16.01-eabi/arm-none-eabi/arm-none-eabi/bin/../lib/gcc/arm-none-eabi/5.2-GNUARM-NONE_v16.01/../../../../arm-none-eabi/lib/armv7-ar/thumb/fpu\libc.a(lib_a-gettzinfo.o)
 .ARM.attributes
                0x00002065       0x2d c:/program files (x86)/kpit/gnuarm-nonev16.01-eabi/arm-none-eabi/arm-none-eabi/bin/../lib/gcc/arm-none-eabi/5.2-GNUARM-NONE_v16.01/../../../../arm-none-eabi/lib/armv7-ar/thumb/fpu\libc.a(lib_a-gmtime_r.o)
 .ARM.attributes
                0x00002092       0x2d c:/program files (x86)/kpit/gnuarm-nonev16.01-eabi/arm-none-eabi/arm-none-eabi/bin/../lib/gcc/arm-none-eabi/5.2-GNUARM-NONE_v16.01/../../../../arm-none-eabi/lib/armv7-ar/thumb/fpu\libc.a(lib_a-locale.o)
 .ARM.attributes
                0x000020bf       0x2d c:/program files (x86)/kpit/gnuarm-nonev16.01-eabi/arm-none-eabi/arm-none-eabi/bin/../lib/gcc/arm-none-eabi/5.2-GNUARM-NONE_v16.01/../../../../arm-none-eabi/lib/armv7-ar/thumb/fpu\libc.a(lib_a-makebuf.o)
 .ARM.attributes
                0x000020ec       0x2d c:/program files (x86)/kpit/gnuarm-nonev16.01-eabi/arm-none-eabi/arm-none-eabi/bin/../lib/gcc/arm-none-eabi/5.2-GNUARM-NONE_v16.01/../../../../arm-none-eabi/lib/armv7-ar/thumb/fpu\libc.a(lib_a-malloc.o)
 .ARM.attributes
                0x00002119       0x2d c:/program files (x86)/kpit/gnuarm-nonev16.01-eabi/arm-none-eabi/arm-none-eabi/bin/../lib/gcc/arm-none-eabi/5.2-GNUARM-NONE_v16.01/../../../../arm-none-eabi/lib/armv7-ar/thumb/fpu\libc.a(lib_a-mallocr.o)
 .ARM.attributes
                0x00002146       0x2d c:/program files (x86)/kpit/gnuarm-nonev16.01-eabi/arm-none-eabi/arm-none-eabi/bin/../lib/gcc/arm-none-eabi/5.2-GNUARM-NONE_v16.01/../../../../arm-none-eabi/lib/armv7-ar/thumb/fpu\libc.a(lib_a-memchr-stub.o)
 .ARM.attributes
                0x00002173       0x2d c:/program files (x86)/kpit/gnuarm-nonev16.01-eabi/arm-none-eabi/arm-none-eabi/bin/../lib/gcc/arm-none-eabi/5.2-GNUARM-NONE_v16.01/../../../../arm-none-eabi/lib/armv7-ar/thumb/fpu\libc.a(lib_a-mlock.o)
 .ARM.attributes
                0x000021a0       0x2d c:/program files (x86)/kpit/gnuarm-nonev16.01-eabi/arm-none-eabi/arm-none-eabi/bin/../lib/gcc/arm-none-eabi/5.2-GNUARM-NONE_v16.01/../../../../arm-none-eabi/lib/armv7-ar/thumb/fpu\libc.a(lib_a-mprec.o)
 .ARM.attributes
                0x000021cd       0x2d c:/program files (x86)/kpit/gnuarm-nonev16.01-eabi/arm-none-eabi/arm-none-eabi/bin/../lib/gcc/arm-none-eabi/5.2-GNUARM-NONE_v16.01/../../../../arm-none-eabi/lib/armv7-ar/thumb/fpu\libc.a(lib_a-sbrkr.o)
 .ARM.attributes
                0x000021fa       0x2d c:/program files (x86)/kpit/gnuarm-nonev16.01-eabi/arm-none-eabi/arm-none-eabi/bin/../lib/gcc/arm-none-eabi/5.2-GNUARM-NONE_v16.01/../../../../arm-none-eabi/lib/armv7-ar/thumb/fpu\libc.a(lib_a-s_fpclassify.o)
 .ARM.attributes
                0x00002227       0x2d c:/program files (x86)/kpit/gnuarm-nonev16.01-eabi/arm-none-eabi/arm-none-eabi/bin/../lib/gcc/arm-none-eabi/5.2-GNUARM-NONE_v16.01/../../../../arm-none-eabi/lib/armv7-ar/thumb/fpu\libc.a(lib_a-siscanf.o)
 .ARM.attributes
                0x00002254       0x2d c:/program files (x86)/kpit/gnuarm-nonev16.01-eabi/arm-none-eabi/arm-none-eabi/bin/../lib/gcc/arm-none-eabi/5.2-GNUARM-NONE_v16.01/../../../../arm-none-eabi/lib/armv7-ar/thumb/fpu\libc.a(lib_a-stdio.o)
 .ARM.attributes
                0x00002281       0x19 c:/program files (x86)/kpit/gnuarm-nonev16.01-eabi/arm-none-eabi/arm-none-eabi/bin/../lib/gcc/arm-none-eabi/5.2-GNUARM-NONE_v16.01/../../../../arm-none-eabi/lib/armv7-ar/thumb/fpu\libc.a(lib_a-strcmp.o)
 .ARM.attributes
                0x0000229a       0x2d c:/program files (x86)/kpit/gnuarm-nonev16.01-eabi/arm-none-eabi/arm-none-eabi/bin/../lib/gcc/arm-none-eabi/5.2-GNUARM-NONE_v16.01/../../../../arm-none-eabi/lib/armv7-ar/thumb/fpu\libc.a(lib_a-strcpy.o)
 .ARM.attributes
                0x000022c7       0x19 c:/program files (x86)/kpit/gnuarm-nonev16.01-eabi/arm-none-eabi/arm-none-eabi/bin/../lib/gcc/arm-none-eabi/5.2-GNUARM-NONE_v16.01/../../../../arm-none-eabi/lib/armv7-ar/thumb/fpu\libc.a(lib_a-strlen.o)
 .ARM.attributes
                0x000022e0       0x2d c:/program files (x86)/kpit/gnuarm-nonev16.01-eabi/arm-none-eabi/arm-none-eabi/bin/../lib/gcc/arm-none-eabi/5.2-GNUARM-NONE_v16.01/../../../../arm-none-eabi/lib/armv7-ar/thumb/fpu\libc.a(lib_a-strncmp.o)
 .ARM.attributes
                0x0000230d       0x2d c:/program files (x86)/kpit/gnuarm-nonev16.01-eabi/arm-none-eabi/arm-none-eabi/bin/../lib/gcc/arm-none-eabi/5.2-GNUARM-NONE_v16.01/../../../../arm-none-eabi/lib/armv7-ar/thumb/fpu\libc.a(lib_a-strtoul.o)
 .ARM.attributes
                0x0000233a       0x2d c:/program files (x86)/kpit/gnuarm-nonev16.01-eabi/arm-none-eabi/arm-none-eabi/bin/../lib/gcc/arm-none-eabi/5.2-GNUARM-NONE_v16.01/../../../../arm-none-eabi/lib/armv7-ar/thumb/fpu\libc.a(lib_a-svfiscanf.o)
 .ARM.attributes
                0x00002367       0x2d c:/program files (x86)/kpit/gnuarm-nonev16.01-eabi/arm-none-eabi/arm-none-eabi/bin/../lib/gcc/arm-none-eabi/5.2-GNUARM-NONE_v16.01/../../../../arm-none-eabi/lib/armv7-ar/thumb/fpu\libc.a(lib_a-ungetc.o)
 .ARM.attributes
                0x00002394       0x2d c:/program files (x86)/kpit/gnuarm-nonev16.01-eabi/arm-none-eabi/arm-none-eabi/bin/../lib/gcc/arm-none-eabi/5.2-GNUARM-NONE_v16.01/../../../../arm-none-eabi/lib/armv7-ar/thumb/fpu\libc.a(lib_a-vfiprintf.o)
 .ARM.attributes
                0x000023c1       0x2d c:/program files (x86)/kpit/gnuarm-nonev16.01-eabi/arm-none-eabi/arm-none-eabi/bin/../lib/gcc/arm-none-eabi/5.2-GNUARM-NONE_v16.01/../../../../arm-none-eabi/lib/armv7-ar/thumb/fpu\libc.a(lib_a-writer.o)
 .ARM.attributes
                0x000023ee       0x2d c:/program files (x86)/kpit/gnuarm-nonev16.01-eabi/arm-none-eabi/arm-none-eabi/bin/../lib/gcc/arm-none-eabi/5.2-GNUARM-NONE_v16.01/../../../../arm-none-eabi/lib/armv7-ar/thumb/fpu\libc.a(lib_a-callocr.o)
 .ARM.attributes
                0x0000241b       0x2d c:/program files (x86)/kpit/gnuarm-nonev16.01-eabi/arm-none-eabi/arm-none-eabi/bin/../lib/gcc/arm-none-eabi/5.2-GNUARM-NONE_v16.01/../../../../arm-none-eabi/lib/armv7-ar/thumb/fpu\libc.a(lib_a-closer.o)
 .ARM.attributes
                0x00002448       0x2d c:/program files (x86)/kpit/gnuarm-nonev16.01-eabi/arm-none-eabi/arm-none-eabi/bin/../lib/gcc/arm-none-eabi/5.2-GNUARM-NONE_v16.01/../../../../arm-none-eabi/lib/armv7-ar/thumb/fpu\libc.a(lib_a-ctype_.o)
 .ARM.attributes
                0x00002475       0x2d c:/program files (x86)/kpit/gnuarm-nonev16.01-eabi/arm-none-eabi/arm-none-eabi/bin/../lib/gcc/arm-none-eabi/5.2-GNUARM-NONE_v16.01/../../../../arm-none-eabi/lib/armv7-ar/thumb/fpu\libc.a(lib_a-environ.o)
 .ARM.attributes
                0x000024a2       0x2d c:/program files (x86)/kpit/gnuarm-nonev16.01-eabi/arm-none-eabi/arm-none-eabi/bin/../lib/gcc/arm-none-eabi/5.2-GNUARM-NONE_v16.01/../../../../arm-none-eabi/lib/armv7-ar/thumb/fpu\libc.a(lib_a-envlock.o)
 .ARM.attributes
                0x000024cf       0x2d c:/program files (x86)/kpit/gnuarm-nonev16.01-eabi/arm-none-eabi/arm-none-eabi/bin/../lib/gcc/arm-none-eabi/5.2-GNUARM-NONE_v16.01/../../../../arm-none-eabi/lib/armv7-ar/thumb/fpu\libc.a(lib_a-fclose.o)
 .ARM.attributes
                0x000024fc       0x2d c:/program files (x86)/kpit/gnuarm-nonev16.01-eabi/arm-none-eabi/arm-none-eabi/bin/../lib/gcc/arm-none-eabi/5.2-GNUARM-NONE_v16.01/../../../../arm-none-eabi/lib/armv7-ar/thumb/fpu\libc.a(lib_a-fputwc.o)
 .ARM.attributes
                0x00002529       0x2d c:/program files (x86)/kpit/gnuarm-nonev16.01-eabi/arm-none-eabi/arm-none-eabi/bin/../lib/gcc/arm-none-eabi/5.2-GNUARM-NONE_v16.01/../../../../arm-none-eabi/lib/armv7-ar/thumb/fpu\libc.a(lib_a-fstatr.o)
 .ARM.attributes
                0x00002556       0x2d c:/program files (x86)/kpit/gnuarm-nonev16.01-eabi/arm-none-eabi/arm-none-eabi/bin/../lib/gcc/arm-none-eabi/5.2-GNUARM-NONE_v16.01/../../../../arm-none-eabi/lib/armv7-ar/thumb/fpu\libc.a(lib_a-fvwrite.o)
 .ARM.attributes
                0x00002583       0x2d c:/program files (x86)/kpit/gnuarm-nonev16.01-eabi/arm-none-eabi/arm-none-eabi/bin/../lib/gcc/arm-none-eabi/5.2-GNUARM-NONE_v16.01/../../../../arm-none-eabi/lib/armv7-ar/thumb/fpu\libc.a(lib_a-isattyr.o)
 .ARM.attributes
                0x000025b0       0x2d c:/program files (x86)/kpit/gnuarm-nonev16.01-eabi/arm-none-eabi/arm-none-eabi/bin/../lib/gcc/arm-none-eabi/5.2-GNUARM-NONE_v16.01/../../../../arm-none-eabi/lib/armv7-ar/thumb/fpu\libc.a(lib_a-iswspace.o)
 .ARM.attributes
                0x000025dd       0x2d c:/program files (x86)/kpit/gnuarm-nonev16.01-eabi/arm-none-eabi/arm-none-eabi/bin/../lib/gcc/arm-none-eabi/5.2-GNUARM-NONE_v16.01/../../../../arm-none-eabi/lib/armv7-ar/thumb/fpu\libc.a(lib_a-lseekr.o)
 .ARM.attributes
                0x0000260a       0x2d c:/program files (x86)/kpit/gnuarm-nonev16.01-eabi/arm-none-eabi/arm-none-eabi/bin/../lib/gcc/arm-none-eabi/5.2-GNUARM-NONE_v16.01/../../../../arm-none-eabi/lib/armv7-ar/thumb/fpu\libc.a(lib_a-mbrtowc.o)
 .ARM.attributes
                0x00002637       0x2d c:/program files (x86)/kpit/gnuarm-nonev16.01-eabi/arm-none-eabi/arm-none-eabi/bin/../lib/gcc/arm-none-eabi/5.2-GNUARM-NONE_v16.01/../../../../arm-none-eabi/lib/armv7-ar/thumb/fpu\libc.a(lib_a-mbtowc_r.o)
 .ARM.attributes
                0x00002664       0x2d c:/program files (x86)/kpit/gnuarm-nonev16.01-eabi/arm-none-eabi/arm-none-eabi/bin/../lib/gcc/arm-none-eabi/5.2-GNUARM-NONE_v16.01/../../../../arm-none-eabi/lib/armv7-ar/thumb/fpu\libc.a(lib_a-readr.o)
 .ARM.attributes
                0x00002691       0x2d c:/program files (x86)/kpit/gnuarm-nonev16.01-eabi/arm-none-eabi/arm-none-eabi/bin/../lib/gcc/arm-none-eabi/5.2-GNUARM-NONE_v16.01/../../../../arm-none-eabi/lib/armv7-ar/thumb/fpu\libc.a(lib_a-reallocr.o)
 .ARM.attributes
                0x000026be       0x2d c:/program files (x86)/kpit/gnuarm-nonev16.01-eabi/arm-none-eabi/arm-none-eabi/bin/../lib/gcc/arm-none-eabi/5.2-GNUARM-NONE_v16.01/../../../../arm-none-eabi/lib/armv7-ar/thumb/fpu\libc.a(lib_a-reent.o)
 .ARM.attributes
                0x000026eb       0x2d c:/program files (x86)/kpit/gnuarm-nonev16.01-eabi/arm-none-eabi/arm-none-eabi/bin/../lib/gcc/arm-none-eabi/5.2-GNUARM-NONE_v16.01/../../../../arm-none-eabi/lib/armv7-ar/thumb/fpu\libc.a(lib_a-sccl.o)
 .ARM.attributes
                0x00002718       0x2d c:/program files (x86)/kpit/gnuarm-nonev16.01-eabi/arm-none-eabi/arm-none-eabi/bin/../lib/gcc/arm-none-eabi/5.2-GNUARM-NONE_v16.01/../../../../arm-none-eabi/lib/armv7-ar/thumb/fpu\libc.a(lib_a-strtol.o)
 .ARM.attributes
                0x00002745       0x2d c:/program files (x86)/kpit/gnuarm-nonev16.01-eabi/arm-none-eabi/arm-none-eabi/bin/../lib/gcc/arm-none-eabi/5.2-GNUARM-NONE_v16.01/../../../../arm-none-eabi/lib/armv7-ar/thumb/fpu\libc.a(lib_a-wbuf.o)
 .ARM.attributes
                0x00002772       0x2d c:/program files (x86)/kpit/gnuarm-nonev16.01-eabi/arm-none-eabi/arm-none-eabi/bin/../lib/gcc/arm-none-eabi/5.2-GNUARM-NONE_v16.01/../../../../arm-none-eabi/lib/armv7-ar/thumb/fpu\libc.a(lib_a-wcrtomb.o)
 .ARM.attributes
                0x0000279f       0x2d c:/program files (x86)/kpit/gnuarm-nonev16.01-eabi/arm-none-eabi/arm-none-eabi/bin/../lib/gcc/arm-none-eabi/5.2-GNUARM-NONE_v16.01/../../../../arm-none-eabi/lib/armv7-ar/thumb/fpu\libc.a(lib_a-wctomb_r.o)
 .ARM.attributes
                0x000027cc       0x1b c:/program files (x86)/kpit/gnuarm-nonev16.01-eabi/arm-none-eabi/arm-none-eabi/bin/../lib/gcc/arm-none-eabi/5.2-GNUARM-NONE_v16.01/armv7-ar/thumb/fpu\libgcc.a(_udivsi3.o)
 .ARM.attributes
                0x000027e7       0x1b c:/program files (x86)/kpit/gnuarm-nonev16.01-eabi/arm-none-eabi/arm-none-eabi/bin/../lib/gcc/arm-none-eabi/5.2-GNUARM-NONE_v16.01/armv7-ar/thumb/fpu\libgcc.a(_divsi3.o)
 .ARM.attributes
                0x00002802       0x1b c:/program files (x86)/kpit/gnuarm-nonev16.01-eabi/arm-none-eabi/arm-none-eabi/bin/../lib/gcc/arm-none-eabi/5.2-GNUARM-NONE_v16.01/armv7-ar/thumb/fpu\libgcc.a(_dvmd_tls.o)
 .ARM.attributes
                0x0000281d       0x1b c:/program files (x86)/kpit/gnuarm-nonev16.01-eabi/arm-none-eabi/arm-none-eabi/bin/../lib/gcc/arm-none-eabi/5.2-GNUARM-NONE_v16.01/armv7-ar/thumb/fpu\libgcc.a(_aeabi_uldivmod.o)
 .ARM.attributes
                0x00002838       0x2d c:/program files (x86)/kpit/gnuarm-nonev16.01-eabi/arm-none-eabi/arm-none-eabi/bin/../lib/gcc/arm-none-eabi/5.2-GNUARM-NONE_v16.01/armv7-ar/thumb/fpu\libgcc.a(_udivmoddi4.o)

.comment        0x00000000       0xd8
 .comment       0x00000000       0x70 sample1n.o
                                 0x71 (size before relaxing)
 .comment       0x00000070       0x71 sample1.o
 .comment       0x00000070       0x71 log_output.o
 .comment       0x00000070       0x71 vasyslog.o
 .comment       0x00000070       0x71 t_perror.o
 .comment       0x00000070       0x71 strerror.o
 .comment       0x00000070       0x71 init_tecs.o
 .comment       0x00000070       0x71 tTask_tecsgen.o
 .comment       0x00000070       0x71 tSemaphore_tecsgen.o
 .comment       0x00000070       0x71 tInterruptRequest_tecsgen.o
 .comment       0x00000070       0x71 tISR_tecsgen.o
 .comment       0x00000070       0x71 tInitializeRoutine_tecsgen.o
 .comment       0x00000070       0x71 tTerminateRoutine_tecsgen.o
 .comment       0x00000070       0x71 tSerialPortMain_tecsgen.o
 .comment       0x00000070       0x71 tSerialAdapter_tecsgen.o
 .comment       0x00000070       0x71 tSysLog_tecsgen.o
 .comment       0x00000070       0x71 tSysLogAdapter_tecsgen.o
 .comment       0x00000070       0x71 tLogTaskMain_tecsgen.o
 .comment       0x00000070       0x71 tBannerMain_tecsgen.o
 .comment       0x00000070       0x71 tPutLogGRPeach_tecsgen.o
 .comment       0x00000070       0x71 tSCIF_tecsgen.o
 .comment       0x00000070       0x71 tSIOPortGRPeachMain_tecsgen.o
 .comment       0x00000070       0x71 tTask.o
 .comment       0x00000070       0x71 tISR.o
 .comment       0x00000070       0x71 tInitializeRoutine.o
 .comment       0x00000070       0x71 tTerminateRoutine.o
 .comment       0x00000070       0x71 tSerialPortMain.o
 .comment       0x00000070       0x71 tSerialAdapter.o
 .comment       0x00000070       0x71 tSysLog.o
 .comment       0x00000070       0x71 tSysLogAdapter.o
 .comment       0x00000070       0x71 tLogTaskMain.o
 .comment       0x00000070       0x71 tBannerMain.o
 .comment       0x00000070       0x71 tPutLogGRPeach.o
 .comment       0x00000070       0x71 tSCIF.o
 .comment       0x00000070       0x71 assert.o
 .comment       0x00000070       0x71 board.o
 .comment       0x00000070       0x71 error.o
 .comment       0x00000070       0x71 gpio.o
 .comment       0x00000070       0x71 lp_ticker_api.o
 .comment       0x00000070       0x71 mbed_interface.o
 .comment       0x00000070       0x71 pinmap_common.o
 .comment       0x00000070       0x71 rtc_time.o
 .comment       0x00000070       0x71 semihost_api.o
 .comment       0x00000070       0x71 ticker_api.o
 .comment       0x00000070       0x71 us_ticker_api.o
 .comment       0x00000070       0x71 RZ_A1_Init.o
 .comment       0x00000070       0x71 cmsis_nvic.o
 .comment       0x00000070       0x71 gic.o
 .comment       0x00000070       0x71 mbed_sf_boot.o
 .comment       0x00000070       0x71 mmu_Renesas_RZ_A1.o
 .comment       0x00000070       0x71 nvic_wrapper.o
 .comment       0x00000070       0x71 pl310.o
 .comment       0x00000070       0x71 rza_io_regrw.o
 .comment       0x00000070       0x71 system_MBRZA1H.o
 .comment       0x00000070       0x71 analogin_api.o
 .comment       0x00000070       0x71 can_api.o
 .comment       0x00000070       0x71 ethernet_api.o
 .comment       0x00000070       0x71 gpio_api.o
 .comment       0x00000070       0x71 gpio_irq_api.o
 .comment       0x00000070       0x71 i2c_api.o
 .comment       0x00000070       0x71 pinmap.o
 .comment       0x00000070       0x71 port_api.o
 .comment       0x00000070       0x71 pwmout_api.o
 .comment       0x00000070       0x71 rtc_api.o
 .comment       0x00000070       0x71 serial_api.o
 .comment       0x00000070       0x71 spi_api.o
 .comment       0x00000070       0x71 net_buf.o
 .comment       0x00000070       0x71 net_count.o
 .comment       0x00000070       0x71 net_subr.o
 .comment       0x00000070       0x71 net_timer.o
 .comment       0x00000070       0x71 in_subr.o
 .comment       0x00000070       0x71 tinet_cfg.o
 .comment       0x00000070       0x71 route_cfg.o
 .comment       0x00000070       0x71 ip_input.o
 .comment       0x00000070       0x71 ip_output.o
 .comment       0x00000070       0x71 ip_icmp.o
 .comment       0x00000070       0x71 tinet_target_config.o
 .comment       0x00000070       0x71 if.o
 .comment       0x00000070       0x71 ethernet.o
 .comment       0x00000070       0x71 if_ether.o
 .comment       0x00000070       0x71 if_mbed.o
 .comment       0x00000070       0x71 tcp_input.o
 .comment       0x00000070       0x71 tcp_output.o
 .comment       0x00000070       0x71 tcp_timer.o
 .comment       0x00000070       0x71 tcp_subr.o
 .comment       0x00000070       0x71 tcp_subr_cs.o
 .comment       0x00000070       0x71 tcp_subr_ncs.o
 .comment       0x00000070       0x71 tcp_usrreq.o
 .comment       0x00000070       0x71 kernel_cfg.o
 .comment       0x00000070       0x71 .\libkernel.a(target_kernel_impl.o)
 .comment       0x00000070       0x71 .\libkernel.a(chip_kernel_impl.o)
 .comment       0x00000070       0x71 .\libkernel.a(gic_kernel_impl.o)
 .comment       0x00000070       0x71 .\libkernel.a(chip_timer.o)
 .comment       0x00000070       0x71 .\libkernel.a(core_kernel_impl.o)
 .comment       0x00000070       0x71 .\libkernel.a(arm.o)
 .comment       0x00000070       0x71 .\libkernel.a(startup.o)
 .comment       0x00000070       0x71 .\libkernel.a(task.o)
 .comment       0x00000070       0x71 .\libkernel.a(taskhook.o)
 .comment       0x00000070       0x71 .\libkernel.a(time_event.o)
 .comment       0x00000070       0x71 .\libkernel.a(task_manage.o)
 .comment       0x00000070       0x71 .\libkernel.a(task_sync.o)
 .comment       0x00000070       0x71 .\libkernel.a(task_term.o)
 .comment       0x00000070       0x71 .\libkernel.a(semaphore.o)
 .comment       0x00000070       0x71 .\libkernel.a(eventflag.o)
 .comment       0x00000070       0x71 .\libkernel.a(dataqueue.o)
 .comment       0x00000070       0x71 .\libkernel.a(mempfix.o)
 .comment       0x00000070       0x71 .\libkernel.a(time_manage.o)
 .comment       0x00000070       0x71 .\libkernel.a(cyclic.o)
 .comment       0x00000070       0x71 .\libkernel.a(alarm.o)
 .comment       0x00000070       0x71 .\libkernel.a(sys_manage.o)
 .comment       0x00000070       0x71 .\libkernel.a(interrupt.o)
 .comment       0x00000070       0x71 .\libkernel.a(exception.o)
 .comment       0x00000070       0x71 .\libkernel.a(wait.o)
 .comment       0x00000070       0x68 c:/program files (x86)/kpit/gnuarm-nonev16.01-eabi/arm-none-eabi/arm-none-eabi/bin/../lib/gcc/arm-none-eabi/5.2-GNUARM-NONE_v16.01/../../../../arm-none-eabi/lib/armv7-ar/thumb/fpu\libc.a(lib_a-exit.o)
                                 0x69 (size before relaxing)
 .comment       0x000000d8       0x69 c:/program files (x86)/kpit/gnuarm-nonev16.01-eabi/arm-none-eabi/arm-none-eabi/bin/../lib/gcc/arm-none-eabi/5.2-GNUARM-NONE_v16.01/../../../../arm-none-eabi/lib/armv7-ar/thumb/fpu\libc.a(lib_a-impure.o)
 .comment       0x000000d8       0x69 c:/program files (x86)/kpit/gnuarm-nonev16.01-eabi/arm-none-eabi/arm-none-eabi/bin/../lib/gcc/arm-none-eabi/5.2-GNUARM-NONE_v16.01/../../../../arm-none-eabi/lib/armv7-ar/thumb/fpu\libc.a(lib_a-lcltime.o)
 .comment       0x000000d8       0x69 c:/program files (x86)/kpit/gnuarm-nonev16.01-eabi/arm-none-eabi/arm-none-eabi/bin/../lib/gcc/arm-none-eabi/5.2-GNUARM-NONE_v16.01/../../../../arm-none-eabi/lib/armv7-ar/thumb/fpu\libc.a(lib_a-lcltime_r.o)
 .comment       0x000000d8       0x69 c:/program files (x86)/kpit/gnuarm-nonev16.01-eabi/arm-none-eabi/arm-none-eabi/bin/../lib/gcc/arm-none-eabi/5.2-GNUARM-NONE_v16.01/../../../../arm-none-eabi/lib/armv7-ar/thumb/fpu\libc.a(lib_a-memcmp.o)
 .comment       0x000000d8       0x69 c:/program files (x86)/kpit/gnuarm-nonev16.01-eabi/arm-none-eabi/arm-none-eabi/bin/../lib/gcc/arm-none-eabi/5.2-GNUARM-NONE_v16.01/../../../../arm-none-eabi/lib/armv7-ar/thumb/fpu\libc.a(lib_a-memcpy-stub.o)
 .comment       0x000000d8       0x69 c:/program files (x86)/kpit/gnuarm-nonev16.01-eabi/arm-none-eabi/arm-none-eabi/bin/../lib/gcc/arm-none-eabi/5.2-GNUARM-NONE_v16.01/../../../../arm-none-eabi/lib/armv7-ar/thumb/fpu\libc.a(lib_a-memmove.o)
 .comment       0x000000d8       0x69 c:/program files (x86)/kpit/gnuarm-nonev16.01-eabi/arm-none-eabi/arm-none-eabi/bin/../lib/gcc/arm-none-eabi/5.2-GNUARM-NONE_v16.01/../../../../arm-none-eabi/lib/armv7-ar/thumb/fpu\libc.a(lib_a-memset.o)
 .comment       0x000000d8       0x69 c:/program files (x86)/kpit/gnuarm-nonev16.01-eabi/arm-none-eabi/arm-none-eabi/bin/../lib/gcc/arm-none-eabi/5.2-GNUARM-NONE_v16.01/../../../../arm-none-eabi/lib/armv7-ar/thumb/fpu\libc.a(lib_a-mktime.o)
 .comment       0x000000d8       0x69 c:/program files (x86)/kpit/gnuarm-nonev16.01-eabi/arm-none-eabi/arm-none-eabi/bin/../lib/gcc/arm-none-eabi/5.2-GNUARM-NONE_v16.01/../../../../arm-none-eabi/lib/armv7-ar/thumb/fpu\libc.a(lib_a-month_lengths.o)
 .comment       0x000000d8       0x69 c:/program files (x86)/kpit/gnuarm-nonev16.01-eabi/arm-none-eabi/arm-none-eabi/bin/../lib/gcc/arm-none-eabi/5.2-GNUARM-NONE_v16.01/../../../../arm-none-eabi/lib/armv7-ar/thumb/fpu\libc.a(lib_a-syscalls.o)
 .comment       0x000000d8       0x69 c:/program files (x86)/kpit/gnuarm-nonev16.01-eabi/arm-none-eabi/arm-none-eabi/bin/../lib/gcc/arm-none-eabi/5.2-GNUARM-NONE_v16.01/../../../../arm-none-eabi/lib/armv7-ar/thumb/fpu\libc.a(lib_a-tzcalc_limits.o)
 .comment       0x000000d8       0x69 c:/program files (x86)/kpit/gnuarm-nonev16.01-eabi/arm-none-eabi/arm-none-eabi/bin/../lib/gcc/arm-none-eabi/5.2-GNUARM-NONE_v16.01/../../../../arm-none-eabi/lib/armv7-ar/thumb/fpu\libc.a(lib_a-tzlock.o)
 .comment       0x000000d8       0x69 c:/program files (x86)/kpit/gnuarm-nonev16.01-eabi/arm-none-eabi/arm-none-eabi/bin/../lib/gcc/arm-none-eabi/5.2-GNUARM-NONE_v16.01/../../../../arm-none-eabi/lib/armv7-ar/thumb/fpu\libc.a(lib_a-tzset.o)
 .comment       0x000000d8       0x69 c:/program files (x86)/kpit/gnuarm-nonev16.01-eabi/arm-none-eabi/arm-none-eabi/bin/../lib/gcc/arm-none-eabi/5.2-GNUARM-NONE_v16.01/../../../../arm-none-eabi/lib/armv7-ar/thumb/fpu\libc.a(lib_a-tzset_r.o)
 .comment       0x000000d8       0x69 c:/program files (x86)/kpit/gnuarm-nonev16.01-eabi/arm-none-eabi/arm-none-eabi/bin/../lib/gcc/arm-none-eabi/5.2-GNUARM-NONE_v16.01/../../../../arm-none-eabi/lib/armv7-ar/thumb/fpu\libc.a(lib_a-tzvars.o)
 .comment       0x000000d8       0x69 c:/program files (x86)/kpit/gnuarm-nonev16.01-eabi/arm-none-eabi/arm-none-eabi/bin/../lib/gcc/arm-none-eabi/5.2-GNUARM-NONE_v16.01/../../../../arm-none-eabi/lib/armv7-ar/thumb/fpu\libc.a(lib_a-vfprintf.o)
 .comment       0x000000d8       0x69 c:/program files (x86)/kpit/gnuarm-nonev16.01-eabi/arm-none-eabi/arm-none-eabi/bin/../lib/gcc/arm-none-eabi/5.2-GNUARM-NONE_v16.01/../../../../arm-none-eabi/lib/armv7-ar/thumb/fpu\libc.a(lib_a-wsetup.o)
 .comment       0x000000d8       0x69 c:/program files (x86)/kpit/gnuarm-nonev16.01-eabi/arm-none-eabi/arm-none-eabi/bin/../lib/gcc/arm-none-eabi/5.2-GNUARM-NONE_v16.01/../../../../arm-none-eabi/lib/armv7-ar/thumb/fpu\libc.a(lib_a-__call_atexit.o)
 .comment       0x000000d8       0x69 c:/program files (x86)/kpit/gnuarm-nonev16.01-eabi/arm-none-eabi/arm-none-eabi/bin/../lib/gcc/arm-none-eabi/5.2-GNUARM-NONE_v16.01/../../../../arm-none-eabi/lib/armv7-ar/thumb/fpu\libc.a(lib_a-div.o)
 .comment       0x000000d8       0x69 c:/program files (x86)/kpit/gnuarm-nonev16.01-eabi/arm-none-eabi/arm-none-eabi/bin/../lib/gcc/arm-none-eabi/5.2-GNUARM-NONE_v16.01/../../../../arm-none-eabi/lib/armv7-ar/thumb/fpu\libc.a(lib_a-dtoa.o)
 .comment       0x000000d8       0x69 c:/program files (x86)/kpit/gnuarm-nonev16.01-eabi/arm-none-eabi/arm-none-eabi/bin/../lib/gcc/arm-none-eabi/5.2-GNUARM-NONE_v16.01/../../../../arm-none-eabi/lib/armv7-ar/thumb/fpu\libc.a(lib_a-errno.o)
 .comment       0x000000d8       0x69 c:/program files (x86)/kpit/gnuarm-nonev16.01-eabi/arm-none-eabi/arm-none-eabi/bin/../lib/gcc/arm-none-eabi/5.2-GNUARM-NONE_v16.01/../../../../arm-none-eabi/lib/armv7-ar/thumb/fpu\libc.a(lib_a-fflush.o)
 .comment       0x000000d8       0x69 c:/program files (x86)/kpit/gnuarm-nonev16.01-eabi/arm-none-eabi/arm-none-eabi/bin/../lib/gcc/arm-none-eabi/5.2-GNUARM-NONE_v16.01/../../../../arm-none-eabi/lib/armv7-ar/thumb/fpu\libc.a(lib_a-findfp.o)
 .comment       0x000000d8       0x69 c:/program files (x86)/kpit/gnuarm-nonev16.01-eabi/arm-none-eabi/arm-none-eabi/bin/../lib/gcc/arm-none-eabi/5.2-GNUARM-NONE_v16.01/../../../../arm-none-eabi/lib/armv7-ar/thumb/fpu\libc.a(lib_a-freer.o)
 .comment       0x000000d8       0x69 c:/program files (x86)/kpit/gnuarm-nonev16.01-eabi/arm-none-eabi/arm-none-eabi/bin/../lib/gcc/arm-none-eabi/5.2-GNUARM-NONE_v16.01/../../../../arm-none-eabi/lib/armv7-ar/thumb/fpu\libc.a(lib_a-fwalk.o)
 .comment       0x000000d8       0x69 c:/program files (x86)/kpit/gnuarm-nonev16.01-eabi/arm-none-eabi/arm-none-eabi/bin/../lib/gcc/arm-none-eabi/5.2-GNUARM-NONE_v16.01/../../../../arm-none-eabi/lib/armv7-ar/thumb/fpu\libc.a(lib_a-getenv_r.o)
 .comment       0x000000d8       0x69 c:/program files (x86)/kpit/gnuarm-nonev16.01-eabi/arm-none-eabi/arm-none-eabi/bin/../lib/gcc/arm-none-eabi/5.2-GNUARM-NONE_v16.01/../../../../arm-none-eabi/lib/armv7-ar/thumb/fpu\libc.a(lib_a-gettzinfo.o)
 .comment       0x000000d8       0x69 c:/program files (x86)/kpit/gnuarm-nonev16.01-eabi/arm-none-eabi/arm-none-eabi/bin/../lib/gcc/arm-none-eabi/5.2-GNUARM-NONE_v16.01/../../../../arm-none-eabi/lib/armv7-ar/thumb/fpu\libc.a(lib_a-gmtime_r.o)
 .comment       0x000000d8       0x69 c:/program files (x86)/kpit/gnuarm-nonev16.01-eabi/arm-none-eabi/arm-none-eabi/bin/../lib/gcc/arm-none-eabi/5.2-GNUARM-NONE_v16.01/../../../../arm-none-eabi/lib/armv7-ar/thumb/fpu\libc.a(lib_a-locale.o)
 .comment       0x000000d8       0x69 c:/program files (x86)/kpit/gnuarm-nonev16.01-eabi/arm-none-eabi/arm-none-eabi/bin/../lib/gcc/arm-none-eabi/5.2-GNUARM-NONE_v16.01/../../../../arm-none-eabi/lib/armv7-ar/thumb/fpu\libc.a(lib_a-makebuf.o)
 .comment       0x000000d8       0x69 c:/program files (x86)/kpit/gnuarm-nonev16.01-eabi/arm-none-eabi/arm-none-eabi/bin/../lib/gcc/arm-none-eabi/5.2-GNUARM-NONE_v16.01/../../../../arm-none-eabi/lib/armv7-ar/thumb/fpu\libc.a(lib_a-malloc.o)
 .comment       0x000000d8       0x69 c:/program files (x86)/kpit/gnuarm-nonev16.01-eabi/arm-none-eabi/arm-none-eabi/bin/../lib/gcc/arm-none-eabi/5.2-GNUARM-NONE_v16.01/../../../../arm-none-eabi/lib/armv7-ar/thumb/fpu\libc.a(lib_a-mallocr.o)
 .comment       0x000000d8       0x69 c:/program files (x86)/kpit/gnuarm-nonev16.01-eabi/arm-none-eabi/arm-none-eabi/bin/../lib/gcc/arm-none-eabi/5.2-GNUARM-NONE_v16.01/../../../../arm-none-eabi/lib/armv7-ar/thumb/fpu\libc.a(lib_a-memchr-stub.o)
 .comment       0x000000d8       0x69 c:/program files (x86)/kpit/gnuarm-nonev16.01-eabi/arm-none-eabi/arm-none-eabi/bin/../lib/gcc/arm-none-eabi/5.2-GNUARM-NONE_v16.01/../../../../arm-none-eabi/lib/armv7-ar/thumb/fpu\libc.a(lib_a-mlock.o)
 .comment       0x000000d8       0x69 c:/program files (x86)/kpit/gnuarm-nonev16.01-eabi/arm-none-eabi/arm-none-eabi/bin/../lib/gcc/arm-none-eabi/5.2-GNUARM-NONE_v16.01/../../../../arm-none-eabi/lib/armv7-ar/thumb/fpu\libc.a(lib_a-mprec.o)
 .comment       0x000000d8       0x69 c:/program files (x86)/kpit/gnuarm-nonev16.01-eabi/arm-none-eabi/arm-none-eabi/bin/../lib/gcc/arm-none-eabi/5.2-GNUARM-NONE_v16.01/../../../../arm-none-eabi/lib/armv7-ar/thumb/fpu\libc.a(lib_a-sbrkr.o)
 .comment       0x000000d8       0x69 c:/program files (x86)/kpit/gnuarm-nonev16.01-eabi/arm-none-eabi/arm-none-eabi/bin/../lib/gcc/arm-none-eabi/5.2-GNUARM-NONE_v16.01/../../../../arm-none-eabi/lib/armv7-ar/thumb/fpu\libc.a(lib_a-s_fpclassify.o)
 .comment       0x000000d8       0x69 c:/program files (x86)/kpit/gnuarm-nonev16.01-eabi/arm-none-eabi/arm-none-eabi/bin/../lib/gcc/arm-none-eabi/5.2-GNUARM-NONE_v16.01/../../../../arm-none-eabi/lib/armv7-ar/thumb/fpu\libc.a(lib_a-siscanf.o)
 .comment       0x000000d8       0x69 c:/program files (x86)/kpit/gnuarm-nonev16.01-eabi/arm-none-eabi/arm-none-eabi/bin/../lib/gcc/arm-none-eabi/5.2-GNUARM-NONE_v16.01/../../../../arm-none-eabi/lib/armv7-ar/thumb/fpu\libc.a(lib_a-stdio.o)
 .comment       0x000000d8       0x69 c:/program files (x86)/kpit/gnuarm-nonev16.01-eabi/arm-none-eabi/arm-none-eabi/bin/../lib/gcc/arm-none-eabi/5.2-GNUARM-NONE_v16.01/../../../../arm-none-eabi/lib/armv7-ar/thumb/fpu\libc.a(lib_a-strcpy.o)
 .comment       0x000000d8       0x69 c:/program files (x86)/kpit/gnuarm-nonev16.01-eabi/arm-none-eabi/arm-none-eabi/bin/../lib/gcc/arm-none-eabi/5.2-GNUARM-NONE_v16.01/../../../../arm-none-eabi/lib/armv7-ar/thumb/fpu\libc.a(lib_a-strncmp.o)
 .comment       0x000000d8       0x69 c:/program files (x86)/kpit/gnuarm-nonev16.01-eabi/arm-none-eabi/arm-none-eabi/bin/../lib/gcc/arm-none-eabi/5.2-GNUARM-NONE_v16.01/../../../../arm-none-eabi/lib/armv7-ar/thumb/fpu\libc.a(lib_a-strtoul.o)
 .comment       0x000000d8       0x69 c:/program files (x86)/kpit/gnuarm-nonev16.01-eabi/arm-none-eabi/arm-none-eabi/bin/../lib/gcc/arm-none-eabi/5.2-GNUARM-NONE_v16.01/../../../../arm-none-eabi/lib/armv7-ar/thumb/fpu\libc.a(lib_a-svfiscanf.o)
 .comment       0x000000d8       0x69 c:/program files (x86)/kpit/gnuarm-nonev16.01-eabi/arm-none-eabi/arm-none-eabi/bin/../lib/gcc/arm-none-eabi/5.2-GNUARM-NONE_v16.01/../../../../arm-none-eabi/lib/armv7-ar/thumb/fpu\libc.a(lib_a-ungetc.o)
 .comment       0x000000d8       0x69 c:/program files (x86)/kpit/gnuarm-nonev16.01-eabi/arm-none-eabi/arm-none-eabi/bin/../lib/gcc/arm-none-eabi/5.2-GNUARM-NONE_v16.01/../../../../arm-none-eabi/lib/armv7-ar/thumb/fpu\libc.a(lib_a-vfiprintf.o)
 .comment       0x000000d8       0x69 c:/program files (x86)/kpit/gnuarm-nonev16.01-eabi/arm-none-eabi/arm-none-eabi/bin/../lib/gcc/arm-none-eabi/5.2-GNUARM-NONE_v16.01/../../../../arm-none-eabi/lib/armv7-ar/thumb/fpu\libc.a(lib_a-writer.o)
 .comment       0x000000d8       0x69 c:/program files (x86)/kpit/gnuarm-nonev16.01-eabi/arm-none-eabi/arm-none-eabi/bin/../lib/gcc/arm-none-eabi/5.2-GNUARM-NONE_v16.01/../../../../arm-none-eabi/lib/armv7-ar/thumb/fpu\libc.a(lib_a-callocr.o)
 .comment       0x000000d8       0x69 c:/program files (x86)/kpit/gnuarm-nonev16.01-eabi/arm-none-eabi/arm-none-eabi/bin/../lib/gcc/arm-none-eabi/5.2-GNUARM-NONE_v16.01/../../../../arm-none-eabi/lib/armv7-ar/thumb/fpu\libc.a(lib_a-closer.o)
 .comment       0x000000d8       0x69 c:/program files (x86)/kpit/gnuarm-nonev16.01-eabi/arm-none-eabi/arm-none-eabi/bin/../lib/gcc/arm-none-eabi/5.2-GNUARM-NONE_v16.01/../../../../arm-none-eabi/lib/armv7-ar/thumb/fpu\libc.a(lib_a-ctype_.o)
 .comment       0x000000d8       0x69 c:/program files (x86)/kpit/gnuarm-nonev16.01-eabi/arm-none-eabi/arm-none-eabi/bin/../lib/gcc/arm-none-eabi/5.2-GNUARM-NONE_v16.01/../../../../arm-none-eabi/lib/armv7-ar/thumb/fpu\libc.a(lib_a-environ.o)
 .comment       0x000000d8       0x69 c:/program files (x86)/kpit/gnuarm-nonev16.01-eabi/arm-none-eabi/arm-none-eabi/bin/../lib/gcc/arm-none-eabi/5.2-GNUARM-NONE_v16.01/../../../../arm-none-eabi/lib/armv7-ar/thumb/fpu\libc.a(lib_a-envlock.o)
 .comment       0x000000d8       0x69 c:/program files (x86)/kpit/gnuarm-nonev16.01-eabi/arm-none-eabi/arm-none-eabi/bin/../lib/gcc/arm-none-eabi/5.2-GNUARM-NONE_v16.01/../../../../arm-none-eabi/lib/armv7-ar/thumb/fpu\libc.a(lib_a-fclose.o)
 .comment       0x000000d8       0x69 c:/program files (x86)/kpit/gnuarm-nonev16.01-eabi/arm-none-eabi/arm-none-eabi/bin/../lib/gcc/arm-none-eabi/5.2-GNUARM-NONE_v16.01/../../../../arm-none-eabi/lib/armv7-ar/thumb/fpu\libc.a(lib_a-fputwc.o)
 .comment       0x000000d8       0x69 c:/program files (x86)/kpit/gnuarm-nonev16.01-eabi/arm-none-eabi/arm-none-eabi/bin/../lib/gcc/arm-none-eabi/5.2-GNUARM-NONE_v16.01/../../../../arm-none-eabi/lib/armv7-ar/thumb/fpu\libc.a(lib_a-fstatr.o)
 .comment       0x000000d8       0x69 c:/program files (x86)/kpit/gnuarm-nonev16.01-eabi/arm-none-eabi/arm-none-eabi/bin/../lib/gcc/arm-none-eabi/5.2-GNUARM-NONE_v16.01/../../../../arm-none-eabi/lib/armv7-ar/thumb/fpu\libc.a(lib_a-fvwrite.o)
 .comment       0x000000d8       0x69 c:/program files (x86)/kpit/gnuarm-nonev16.01-eabi/arm-none-eabi/arm-none-eabi/bin/../lib/gcc/arm-none-eabi/5.2-GNUARM-NONE_v16.01/../../../../arm-none-eabi/lib/armv7-ar/thumb/fpu\libc.a(lib_a-isattyr.o)
 .comment       0x000000d8       0x69 c:/program files (x86)/kpit/gnuarm-nonev16.01-eabi/arm-none-eabi/arm-none-eabi/bin/../lib/gcc/arm-none-eabi/5.2-GNUARM-NONE_v16.01/../../../../arm-none-eabi/lib/armv7-ar/thumb/fpu\libc.a(lib_a-iswspace.o)
 .comment       0x000000d8       0x69 c:/program files (x86)/kpit/gnuarm-nonev16.01-eabi/arm-none-eabi/arm-none-eabi/bin/../lib/gcc/arm-none-eabi/5.2-GNUARM-NONE_v16.01/../../../../arm-none-eabi/lib/armv7-ar/thumb/fpu\libc.a(lib_a-lseekr.o)
 .comment       0x000000d8       0x69 c:/program files (x86)/kpit/gnuarm-nonev16.01-eabi/arm-none-eabi/arm-none-eabi/bin/../lib/gcc/arm-none-eabi/5.2-GNUARM-NONE_v16.01/../../../../arm-none-eabi/lib/armv7-ar/thumb/fpu\libc.a(lib_a-mbrtowc.o)
 .comment       0x000000d8       0x69 c:/program files (x86)/kpit/gnuarm-nonev16.01-eabi/arm-none-eabi/arm-none-eabi/bin/../lib/gcc/arm-none-eabi/5.2-GNUARM-NONE_v16.01/../../../../arm-none-eabi/lib/armv7-ar/thumb/fpu\libc.a(lib_a-mbtowc_r.o)
 .comment       0x000000d8       0x69 c:/program files (x86)/kpit/gnuarm-nonev16.01-eabi/arm-none-eabi/arm-none-eabi/bin/../lib/gcc/arm-none-eabi/5.2-GNUARM-NONE_v16.01/../../../../arm-none-eabi/lib/armv7-ar/thumb/fpu\libc.a(lib_a-readr.o)
 .comment       0x000000d8       0x69 c:/program files (x86)/kpit/gnuarm-nonev16.01-eabi/arm-none-eabi/arm-none-eabi/bin/../lib/gcc/arm-none-eabi/5.2-GNUARM-NONE_v16.01/../../../../arm-none-eabi/lib/armv7-ar/thumb/fpu\libc.a(lib_a-reallocr.o)
 .comment       0x000000d8       0x69 c:/program files (x86)/kpit/gnuarm-nonev16.01-eabi/arm-none-eabi/arm-none-eabi/bin/../lib/gcc/arm-none-eabi/5.2-GNUARM-NONE_v16.01/../../../../arm-none-eabi/lib/armv7-ar/thumb/fpu\libc.a(lib_a-reent.o)
 .comment       0x000000d8       0x69 c:/program files (x86)/kpit/gnuarm-nonev16.01-eabi/arm-none-eabi/arm-none-eabi/bin/../lib/gcc/arm-none-eabi/5.2-GNUARM-NONE_v16.01/../../../../arm-none-eabi/lib/armv7-ar/thumb/fpu\libc.a(lib_a-sccl.o)
 .comment       0x000000d8       0x69 c:/program files (x86)/kpit/gnuarm-nonev16.01-eabi/arm-none-eabi/arm-none-eabi/bin/../lib/gcc/arm-none-eabi/5.2-GNUARM-NONE_v16.01/../../../../arm-none-eabi/lib/armv7-ar/thumb/fpu\libc.a(lib_a-strtol.o)
 .comment       0x000000d8       0x69 c:/program files (x86)/kpit/gnuarm-nonev16.01-eabi/arm-none-eabi/arm-none-eabi/bin/../lib/gcc/arm-none-eabi/5.2-GNUARM-NONE_v16.01/../../../../arm-none-eabi/lib/armv7-ar/thumb/fpu\libc.a(lib_a-wbuf.o)
 .comment       0x000000d8       0x69 c:/program files (x86)/kpit/gnuarm-nonev16.01-eabi/arm-none-eabi/arm-none-eabi/bin/../lib/gcc/arm-none-eabi/5.2-GNUARM-NONE_v16.01/../../../../arm-none-eabi/lib/armv7-ar/thumb/fpu\libc.a(lib_a-wcrtomb.o)
 .comment       0x000000d8       0x69 c:/program files (x86)/kpit/gnuarm-nonev16.01-eabi/arm-none-eabi/arm-none-eabi/bin/../lib/gcc/arm-none-eabi/5.2-GNUARM-NONE_v16.01/../../../../arm-none-eabi/lib/armv7-ar/thumb/fpu\libc.a(lib_a-wctomb_r.o)
 .comment       0x000000d8       0x69 c:/program files (x86)/kpit/gnuarm-nonev16.01-eabi/arm-none-eabi/arm-none-eabi/bin/../lib/gcc/arm-none-eabi/5.2-GNUARM-NONE_v16.01/armv7-ar/thumb/fpu\libgcc.a(_udivmoddi4.o)

.debug_line     0x00000000    0x13032
 .debug_line    0x00000000      0x17f startup_RZ1AH.o
 .debug_line    0x0000017f      0x3df sample1n.o
 .debug_line    0x0000055e      0x52d sample1.o
 .debug_line    0x00000a8b      0x1d0 log_output.o
 .debug_line    0x00000c5b      0x202 vasyslog.o
 .debug_line    0x00000e5d      0x154 t_perror.o
 .debug_line    0x00000fb1      0x147 strerror.o
 .debug_line    0x000010f8       0x99 cache.o
 .debug_line    0x00001191       0x65 init_tecs.o
 .debug_line    0x000011f6      0x183 tTask_tecsgen.o
 .debug_line    0x00001379       0x6c tSemaphore_tecsgen.o
 .debug_line    0x000013e5       0x86 tInterruptRequest_tecsgen.o
 .debug_line    0x0000146b       0x7b tISR_tecsgen.o
 .debug_line    0x000014e6       0x1d tInitializeRoutine_tecsgen.o
 .debug_line    0x00001503      0x15d tTerminateRoutine_tecsgen.o
 .debug_line    0x00001660      0x1ee tSerialPortMain_tecsgen.o
 .debug_line    0x0000184e       0xa3 tSerialAdapter_tecsgen.o
 .debug_line    0x000018f1      0x1a6 tSysLog_tecsgen.o
 .debug_line    0x00001a97      0x15d tSysLogAdapter_tecsgen.o
 .debug_line    0x00001bf4      0x191 tLogTaskMain_tecsgen.o
 .debug_line    0x00001d85       0x55 tBannerMain_tecsgen.o
 .debug_line    0x00001dda      0x15d tPutLogGRPeach_tecsgen.o
 .debug_line    0x00001f37      0x1c2 tSCIF_tecsgen.o
 .debug_line    0x000020f9      0x15d tSIOPortGRPeachMain_tecsgen.o
 .debug_line    0x00002256      0x1b4 tTask.o
 .debug_line    0x0000240a      0x158 tISR.o
 .debug_line    0x00002562      0x159 tInitializeRoutine.o
 .debug_line    0x000026bb      0x1cc tTerminateRoutine.o
 .debug_line    0x00002887      0x548 tSerialPortMain.o
 .debug_line    0x00002dcf      0x11b tSerialAdapter.o
 .debug_line    0x00002eea      0x312 tSysLog.o
 .debug_line    0x000031fc      0x1bb tSysLogAdapter.o
 .debug_line    0x000033b7      0x272 tLogTaskMain.o
 .debug_line    0x00003629      0x168 tBannerMain.o
 .debug_line    0x00003791      0x234 tPutLogGRPeach.o
 .debug_line    0x000039c5      0x3f5 tSCIF.o
 .debug_line    0x00003dba       0x64 assert.o
 .debug_line    0x00003e1e      0x1f0 board.o
 .debug_line    0x0000400e      0x1a6 error.o
 .debug_line    0x000041b4      0x1af gpio.o
 .debug_line    0x00004363       0x1d lp_ticker_api.o
 .debug_line    0x00004380       0x58 mbed_interface.o
 .debug_line    0x000043d8      0x1c9 pinmap_common.o
 .debug_line    0x000045a1      0x1eb rtc_time.o
 .debug_line    0x0000478c       0x1d semihost_api.o
 .debug_line    0x000047a9      0x1d7 ticker_api.o
 .debug_line    0x00004980      0x133 us_ticker_api.o
 .debug_line    0x00004ab3      0x1a9 RZ_A1_Init.o
 .debug_line    0x00004c5c      0x15a cmsis_nvic.o
 .debug_line    0x00004db6      0x21c gic.o
 .debug_line    0x00004fd2       0x62 mbed_sf_boot.o
 .debug_line    0x00005034      0x76c mmu_Renesas_RZ_A1.o
 .debug_line    0x000057a0      0x1d5 nvic_wrapper.o
 .debug_line    0x00005975      0x16e pl310.o
 .debug_line    0x00005ae3      0x159 rza_io_regrw.o
 .debug_line    0x00005c3c      0x28c system_MBRZA1H.o
 .debug_line    0x00005ec8      0x23a analogin_api.o
 .debug_line    0x00006102      0x5ef can_api.o
 .debug_line    0x000066f1      0x556 ethernet_api.o
 .debug_line    0x00006c47      0x17d gpio_api.o
 .debug_line    0x00006dc4      0x2c9 gpio_irq_api.o
 .debug_line    0x0000708d      0x65a i2c_api.o
 .debug_line    0x000076e7       0xc8 pinmap.o
 .debug_line    0x000077af      0x1c0 port_api.o
 .debug_line    0x0000796f      0x38b pwmout_api.o
 .debug_line    0x00007cfa      0x2ea rtc_api.o
 .debug_line    0x00007fe4      0x481 serial_api.o
 .debug_line    0x00008465      0x361 spi_api.o
 .debug_line    0x000087c6      0x227 net_buf.o
 .debug_line    0x000089ed      0x10e net_count.o
 .debug_line    0x00008afb      0x19f net_subr.o
 .debug_line    0x00008c9a      0x1e4 net_timer.o
 .debug_line    0x00008e7e      0x3c1 in_subr.o
 .debug_line    0x0000923f      0x1f8 tinet_cfg.o
 .debug_line    0x00009437      0x121 route_cfg.o
 .debug_line    0x00009558      0x38d ip_input.o
 .debug_line    0x000098e5      0x1e7 ip_output.o
 .debug_line    0x00009acc      0x2b1 ip_icmp.o
 .debug_line    0x00009d7d       0x5f tinet_target_config.o
 .debug_line    0x00009ddc      0x16d if.o
 .debug_line    0x00009f49      0x253 ethernet.o
 .debug_line    0x0000a19c      0x345 if_ether.o
 .debug_line    0x0000a4e1      0x308 if_mbed.o
 .debug_line    0x0000a7e9      0x65d tcp_input.o
 .debug_line    0x0000ae46      0x3df tcp_output.o
 .debug_line    0x0000b225      0x2df tcp_timer.o
 .debug_line    0x0000b504      0x554 tcp_subr.o
 .debug_line    0x0000ba58       0x1d tcp_subr_cs.o
 .debug_line    0x0000ba75      0x36e tcp_subr_ncs.o
 .debug_line    0x0000bde3      0x46b tcp_usrreq.o
 .debug_line    0x0000c24e      0x3ad kernel_cfg.o
 .debug_line    0x0000c5fb      0x1ae .\libkernel.a(core_support.o)
 .debug_line    0x0000c7a9      0x4a3 .\libkernel.a(target_kernel_impl.o)
 .debug_line    0x0000cc4c      0x34e .\libkernel.a(chip_kernel_impl.o)
 .debug_line    0x0000cf9a      0x27d .\libkernel.a(gic_kernel_impl.o)
 .debug_line    0x0000d217      0x207 .\libkernel.a(chip_timer.o)
 .debug_line    0x0000d41e      0x2e7 .\libkernel.a(core_kernel_impl.o)
 .debug_line    0x0000d705      0x1d9 .\libkernel.a(arm.o)
 .debug_line    0x0000d8de      0x287 .\libkernel.a(startup.o)
 .debug_line    0x0000db65      0x4ff .\libkernel.a(task.o)
 .debug_line    0x0000e064      0x1db .\libkernel.a(taskhook.o)
 .debug_line    0x0000e23f      0x369 .\libkernel.a(time_event.o)
 .debug_line    0x0000e5a8      0x596 .\libkernel.a(task_manage.o)
 .debug_line    0x0000eb3e      0x554 .\libkernel.a(task_sync.o)
 .debug_line    0x0000f092      0x3c5 .\libkernel.a(task_term.o)
 .debug_line    0x0000f457      0x656 .\libkernel.a(semaphore.o)
 .debug_line    0x0000faad      0x721 .\libkernel.a(eventflag.o)
 .debug_line    0x000101ce      0x951 .\libkernel.a(dataqueue.o)
 .debug_line    0x00010b1f      0x6bd .\libkernel.a(mempfix.o)
 .debug_line    0x000111dc      0x42b .\libkernel.a(time_manage.o)
 .debug_line    0x00011607      0x496 .\libkernel.a(cyclic.o)
 .debug_line    0x00011a9d      0x46d .\libkernel.a(alarm.o)
 .debug_line    0x00011f0a      0x478 .\libkernel.a(sys_manage.o)
 .debug_line    0x00012382      0x5c9 .\libkernel.a(interrupt.o)
 .debug_line    0x0001294b      0x237 .\libkernel.a(exception.o)
 .debug_line    0x00012b82       0x84 .\libkernel.a(gic_support.o)
 .debug_line    0x00012c06      0x42c .\libkernel.a(wait.o)

.debug_info     0x00000000    0x58143
 .debug_info    0x00000000       0xb4 startup_RZ1AH.o
 .debug_info    0x000000b4     0x10b9 sample1n.o
 .debug_info    0x0000116d     0x2d3b sample1.o
 .debug_info    0x00003ea8      0x4b2 log_output.o
 .debug_info    0x0000435a      0x20f vasyslog.o
 .debug_info    0x00004569      0x2c2 t_perror.o
 .debug_info    0x0000482b       0xe0 strerror.o
 .debug_info    0x0000490b       0x9b cache.o
 .debug_info    0x000049a6       0xd5 init_tecs.o
 .debug_info    0x00004a7b      0x308 tTask_tecsgen.o
 .debug_info    0x00004d83       0xcc tSemaphore_tecsgen.o
 .debug_info    0x00004e4f       0xce tInterruptRequest_tecsgen.o
 .debug_info    0x00004f1d      0x142 tISR_tecsgen.o
 .debug_info    0x0000505f       0x80 tInitializeRoutine_tecsgen.o
 .debug_info    0x000050df      0x2b5 tTerminateRoutine_tecsgen.o
 .debug_info    0x00005394      0x7cf tSerialPortMain_tecsgen.o
 .debug_info    0x00005b63      0x27c tSerialAdapter_tecsgen.o
 .debug_info    0x00005ddf      0x434 tSysLog_tecsgen.o
 .debug_info    0x00006213      0x2b5 tSysLogAdapter_tecsgen.o
 .debug_info    0x000064c8      0x306 tLogTaskMain_tecsgen.o
 .debug_info    0x000067ce       0xcc tBannerMain_tecsgen.o
 .debug_info    0x0000689a      0x2b5 tPutLogGRPeach_tecsgen.o
 .debug_info    0x00006b4f      0x4d2 tSCIF_tecsgen.o
 .debug_info    0x00007021      0x2b5 tSIOPortGRPeachMain_tecsgen.o
 .debug_info    0x000072d6      0x35c tTask.o
 .debug_info    0x00007632      0x16e tISR.o
 .debug_info    0x000077a0      0x10e tInitializeRoutine.o
 .debug_info    0x000078ae      0x343 tTerminateRoutine.o
 .debug_info    0x00007bf1     0x15f0 tSerialPortMain.o
 .debug_info    0x000091e1      0x430 tSerialAdapter.o
 .debug_info    0x00009611      0xb81 tSysLog.o
 .debug_info    0x0000a192      0x547 tSysLogAdapter.o
 .debug_info    0x0000a6d9      0x8f2 tLogTaskMain.o
 .debug_info    0x0000afcb      0x2c1 tBannerMain.o
 .debug_info    0x0000b28c      0x552 tPutLogGRPeach.o
 .debug_info    0x0000b7de     0x102e tSCIF.o
 .debug_info    0x0000c80c       0xb8 assert.o
 .debug_info    0x0000c8c4      0x96d board.o
 .debug_info    0x0000d231      0x935 error.o
 .debug_info    0x0000db66      0xbd5 gpio.o
 .debug_info    0x0000e73b       0x6b lp_ticker_api.o
 .debug_info    0x0000e7a6       0x9f mbed_interface.o
 .debug_info    0x0000e845      0x949 pinmap_common.o
 .debug_info    0x0000f18e      0x26a rtc_time.o
 .debug_info    0x0000f3f8       0x72 semihost_api.o
 .debug_info    0x0000f46a      0x44d ticker_api.o
 .debug_info    0x0000f8b7      0x265 us_ticker_api.o
 .debug_info    0x0000fb1c      0x9e6 RZ_A1_Init.o
 .debug_info    0x00010502      0xf34 cmsis_nvic.o
 .debug_info    0x00011436     0x167a gic.o
 .debug_info    0x00012ab0       0x53 mbed_sf_boot.o
 .debug_info    0x00012b03     0x21da mmu_Renesas_RZ_A1.o
 .debug_info    0x00014cdd     0x134b nvic_wrapper.o
 .debug_info    0x00016028      0x56b pl310.o
 .debug_info    0x00016593      0x2fc rza_io_regrw.o
 .debug_info    0x0001688f     0x140c system_MBRZA1H.o
 .debug_info    0x00017c9b     0x1031 analogin_api.o
 .debug_info    0x00018ccc     0x709b can_api.o
 .debug_info    0x0001fd67     0x3c1c ethernet_api.o
 .debug_info    0x00023983      0x84a gpio_api.o
 .debug_info    0x000241cd     0x35a4 gpio_irq_api.o
 .debug_info    0x00027771     0x2004 i2c_api.o
 .debug_info    0x00029775      0x7ac pinmap.o
 .debug_info    0x00029f21      0x952 port_api.o
 .debug_info    0x0002a873     0x1e8f pwmout_api.o
 .debug_info    0x0002c702      0x747 rtc_api.o
 .debug_info    0x0002ce49     0x2bdf serial_api.o
 .debug_info    0x0002fa28     0x156c spi_api.o
 .debug_info    0x00030f94      0x74b net_buf.o
 .debug_info    0x000316df      0x190 net_count.o
 .debug_info    0x0003186f      0x431 net_subr.o
 .debug_info    0x00031ca0      0x4b6 net_timer.o
 .debug_info    0x00032156      0xe4f in_subr.o
 .debug_info    0x00032fa5      0x881 tinet_cfg.o
 .debug_info    0x00033826      0x125 route_cfg.o
 .debug_info    0x0003394b      0xa16 ip_input.o
 .debug_info    0x00034361      0x53d ip_output.o
 .debug_info    0x0003489e      0x901 ip_icmp.o
 .debug_info    0x0003519f       0xa3 tinet_target_config.o
 .debug_info    0x00035242      0x265 if.o
 .debug_info    0x000354a7      0xa2a ethernet.o
 .debug_info    0x00035ed1      0xde0 if_ether.o
 .debug_info    0x00036cb1     0x125c if_mbed.o
 .debug_info    0x00037f0d     0x1937 tcp_input.o
 .debug_info    0x00039844      0xdf4 tcp_output.o
 .debug_info    0x0003a638      0xb33 tcp_timer.o
 .debug_info    0x0003b16b     0x1a11 tcp_subr.o
 .debug_info    0x0003cb7c       0x80 tcp_subr_cs.o
 .debug_info    0x0003cbfc     0x100e tcp_subr_ncs.o
 .debug_info    0x0003dc0a     0x180c tcp_usrreq.o
 .debug_info    0x0003f416     0x2a22 kernel_cfg.o
 .debug_info    0x00041e38       0x81 .\libkernel.a(core_support.o)
 .debug_info    0x00041eb9     0x207b .\libkernel.a(target_kernel_impl.o)
 .debug_info    0x00043f34      0xbf4 .\libkernel.a(chip_kernel_impl.o)
 .debug_info    0x00044b28      0x3f9 .\libkernel.a(gic_kernel_impl.o)
 .debug_info    0x00044f21      0x4e4 .\libkernel.a(chip_timer.o)
 .debug_info    0x00045405      0xad9 .\libkernel.a(core_kernel_impl.o)
 .debug_info    0x00045ede      0x315 .\libkernel.a(arm.o)
 .debug_info    0x000461f3      0x432 .\libkernel.a(startup.o)
 .debug_info    0x00046625     0x116e .\libkernel.a(task.o)
 .debug_info    0x00047793      0x475 .\libkernel.a(taskhook.o)
 .debug_info    0x00047c08      0xa46 .\libkernel.a(time_event.o)
 .debug_info    0x0004864e     0x1135 .\libkernel.a(task_manage.o)
 .debug_info    0x00049783      0xf97 .\libkernel.a(task_sync.o)
 .debug_info    0x0004a71a      0xb97 .\libkernel.a(task_term.o)
 .debug_info    0x0004b2b1     0x1527 .\libkernel.a(semaphore.o)
 .debug_info    0x0004c7d8     0x186f .\libkernel.a(eventflag.o)
 .debug_info    0x0004e047     0x221f .\libkernel.a(dataqueue.o)
 .debug_info    0x00050266     0x1766 .\libkernel.a(mempfix.o)
 .debug_info    0x000519cc      0xe2f .\libkernel.a(time_manage.o)
 .debug_info    0x000527fb     0x10b2 .\libkernel.a(cyclic.o)
 .debug_info    0x000538ad      0xffb .\libkernel.a(alarm.o)
 .debug_info    0x000548a8      0xdd8 .\libkernel.a(sys_manage.o)
 .debug_info    0x00055680     0x14ad .\libkernel.a(interrupt.o)
 .debug_info    0x00056b2d      0x5f5 .\libkernel.a(exception.o)
 .debug_info    0x00057122       0x84 .\libkernel.a(gic_support.o)
 .debug_info    0x000571a6      0xf9d .\libkernel.a(wait.o)

.debug_abbrev   0x00000000     0xd5b8
 .debug_abbrev  0x00000000       0x14 startup_RZ1AH.o
 .debug_abbrev  0x00000014      0x2d8 sample1n.o
 .debug_abbrev  0x000002ec      0x37c sample1.o
 .debug_abbrev  0x00000668      0x17e log_output.o
 .debug_abbrev  0x000007e6      0x133 vasyslog.o
 .debug_abbrev  0x00000919      0x169 t_perror.o
 .debug_abbrev  0x00000a82       0x7f strerror.o
 .debug_abbrev  0x00000b01       0x14 cache.o
 .debug_abbrev  0x00000b15       0x74 init_tecs.o
 .debug_abbrev  0x00000b89       0xb6 tTask_tecsgen.o
 .debug_abbrev  0x00000c3f       0x88 tSemaphore_tecsgen.o
 .debug_abbrev  0x00000cc7       0x7b tInterruptRequest_tecsgen.o
 .debug_abbrev  0x00000d42       0xc1 tISR_tecsgen.o
 .debug_abbrev  0x00000e03       0x26 tInitializeRoutine_tecsgen.o
 .debug_abbrev  0x00000e29       0x80 tTerminateRoutine_tecsgen.o
 .debug_abbrev  0x00000ea9      0x193 tSerialPortMain_tecsgen.o
 .debug_abbrev  0x0000103c       0xd0 tSerialAdapter_tecsgen.o
 .debug_abbrev  0x0000110c       0xc1 tSysLog_tecsgen.o
 .debug_abbrev  0x000011cd       0x80 tSysLogAdapter_tecsgen.o
 .debug_abbrev  0x0000124d       0x91 tLogTaskMain_tecsgen.o
 .debug_abbrev  0x000012de       0x72 tBannerMain_tecsgen.o
 .debug_abbrev  0x00001350       0x80 tPutLogGRPeach_tecsgen.o
 .debug_abbrev  0x000013d0      0x14b tSCIF_tecsgen.o
 .debug_abbrev  0x0000151b       0x80 tSIOPortGRPeachMain_tecsgen.o
 .debug_abbrev  0x0000159b       0xf7 tTask.o
 .debug_abbrev  0x00001692       0xc9 tISR.o
 .debug_abbrev  0x0000175b       0xb5 tInitializeRoutine.o
 .debug_abbrev  0x00001810       0xdb tTerminateRoutine.o
 .debug_abbrev  0x000018eb      0x345 tSerialPortMain.o
 .debug_abbrev  0x00001c30      0x13a tSerialAdapter.o
 .debug_abbrev  0x00001d6a      0x23e tSysLog.o
 .debug_abbrev  0x00001fa8      0x126 tSysLogAdapter.o
 .debug_abbrev  0x000020ce      0x23c tLogTaskMain.o
 .debug_abbrev  0x0000230a      0x17d tBannerMain.o
 .debug_abbrev  0x00002487      0x1c0 tPutLogGRPeach.o
 .debug_abbrev  0x00002647      0x317 tSCIF.o
 .debug_abbrev  0x0000295e       0x97 assert.o
 .debug_abbrev  0x000029f5      0x18e board.o
 .debug_abbrev  0x00002b83      0x209 error.o
 .debug_abbrev  0x00002d8c      0x194 gpio.o
 .debug_abbrev  0x00002f20       0x26 lp_ticker_api.o
 .debug_abbrev  0x00002f46       0x5a mbed_interface.o
 .debug_abbrev  0x00002fa0      0x128 pinmap_common.o
 .debug_abbrev  0x000030c8      0x1a9 rtc_time.o
 .debug_abbrev  0x00003271       0x26 semihost_api.o
 .debug_abbrev  0x00003297      0x1d7 ticker_api.o
 .debug_abbrev  0x0000346e      0x10e us_ticker_api.o
 .debug_abbrev  0x0000357c       0xdf RZ_A1_Init.o
 .debug_abbrev  0x0000365b      0x119 cmsis_nvic.o
 .debug_abbrev  0x00003774      0x1db gic.o
 .debug_abbrev  0x0000394f       0x45 mbed_sf_boot.o
 .debug_abbrev  0x00003994      0x23a mmu_Renesas_RZ_A1.o
 .debug_abbrev  0x00003bce      0x1b8 nvic_wrapper.o
 .debug_abbrev  0x00003d86      0x11f pl310.o
 .debug_abbrev  0x00003ea5       0xc4 rza_io_regrw.o
 .debug_abbrev  0x00003f69      0x2e7 system_MBRZA1H.o
 .debug_abbrev  0x00004250      0x226 analogin_api.o
 .debug_abbrev  0x00004476      0x307 can_api.o
 .debug_abbrev  0x0000477d      0x322 ethernet_api.o
 .debug_abbrev  0x00004a9f      0x148 gpio_api.o
 .debug_abbrev  0x00004be7      0x2cc gpio_irq_api.o
 .debug_abbrev  0x00004eb3      0x420 i2c_api.o
 .debug_abbrev  0x000052d3      0x128 pinmap.o
 .debug_abbrev  0x000053fb      0x168 port_api.o
 .debug_abbrev  0x00005563      0x2e9 pwmout_api.o
 .debug_abbrev  0x0000584c      0x201 rtc_api.o
 .debug_abbrev  0x00005a4d      0x317 serial_api.o
 .debug_abbrev  0x00005d64      0x362 spi_api.o
 .debug_abbrev  0x000060c6      0x1de net_buf.o
 .debug_abbrev  0x000062a4       0x74 net_count.o
 .debug_abbrev  0x00006318      0x19d net_subr.o
 .debug_abbrev  0x000064b5      0x19d net_timer.o
 .debug_abbrev  0x00006652      0x305 in_subr.o
 .debug_abbrev  0x00006957      0x103 tinet_cfg.o
 .debug_abbrev  0x00006a5a       0x74 route_cfg.o
 .debug_abbrev  0x00006ace      0x2db ip_input.o
 .debug_abbrev  0x00006da9      0x19f ip_output.o
 .debug_abbrev  0x00006f48      0x248 ip_icmp.o
 .debug_abbrev  0x00007190       0x42 tinet_target_config.o
 .debug_abbrev  0x000071d2      0x155 if.o
 .debug_abbrev  0x00007327      0x2b6 ethernet.o
 .debug_abbrev  0x000075dd      0x2ca if_ether.o
 .debug_abbrev  0x000078a7      0x2d3 if_mbed.o
 .debug_abbrev  0x00007b7a      0x3bb tcp_input.o
 .debug_abbrev  0x00007f35      0x2b6 tcp_output.o
 .debug_abbrev  0x000081eb      0x282 tcp_timer.o
 .debug_abbrev  0x0000846d      0x32b tcp_subr.o
 .debug_abbrev  0x00008798       0x26 tcp_subr_cs.o
 .debug_abbrev  0x000087be      0x2ac tcp_subr_ncs.o
 .debug_abbrev  0x00008a6a      0x2df tcp_usrreq.o
 .debug_abbrev  0x00008d49      0x222 kernel_cfg.o
 .debug_abbrev  0x00008f6b       0x12 .\libkernel.a(core_support.o)
 .debug_abbrev  0x00008f7d      0x364 .\libkernel.a(target_kernel_impl.o)
 .debug_abbrev  0x000092e1      0x310 .\libkernel.a(chip_kernel_impl.o)
 .debug_abbrev  0x000095f1      0x14d .\libkernel.a(gic_kernel_impl.o)
 .debug_abbrev  0x0000973e      0x1bf .\libkernel.a(chip_timer.o)
 .debug_abbrev  0x000098fd      0x313 .\libkernel.a(core_kernel_impl.o)
 .debug_abbrev  0x00009c10      0x136 .\libkernel.a(arm.o)
 .debug_abbrev  0x00009d46      0x1cd .\libkernel.a(startup.o)
 .debug_abbrev  0x00009f13      0x3af .\libkernel.a(task.o)
 .debug_abbrev  0x0000a2c2      0x11e .\libkernel.a(taskhook.o)
 .debug_abbrev  0x0000a3e0      0x3af .\libkernel.a(time_event.o)
 .debug_abbrev  0x0000a78f      0x356 .\libkernel.a(task_manage.o)
 .debug_abbrev  0x0000aae5      0x339 .\libkernel.a(task_sync.o)
 .debug_abbrev  0x0000ae1e      0x345 .\libkernel.a(task_term.o)
 .debug_abbrev  0x0000b163      0x389 .\libkernel.a(semaphore.o)
 .debug_abbrev  0x0000b4ec      0x38b .\libkernel.a(eventflag.o)
 .debug_abbrev  0x0000b877      0x389 .\libkernel.a(dataqueue.o)
 .debug_abbrev  0x0000bc00      0x3ff .\libkernel.a(mempfix.o)
 .debug_abbrev  0x0000bfff      0x320 .\libkernel.a(time_manage.o)
 .debug_abbrev  0x0000c31f      0x381 .\libkernel.a(cyclic.o)
 .debug_abbrev  0x0000c6a0      0x38e .\libkernel.a(alarm.o)
 .debug_abbrev  0x0000ca2e      0x32d .\libkernel.a(sys_manage.o)
 .debug_abbrev  0x0000cd5b      0x424 .\libkernel.a(interrupt.o)
 .debug_abbrev  0x0000d17f      0x198 .\libkernel.a(exception.o)
 .debug_abbrev  0x0000d317       0x14 .\libkernel.a(gic_support.o)
 .debug_abbrev  0x0000d32b      0x28d .\libkernel.a(wait.o)

.debug_aranges  0x00000000      0xe08
 .debug_aranges
                0x00000000       0x20 startup_RZ1AH.o
 .debug_aranges
                0x00000020       0x20 sample1n.o
 .debug_aranges
                0x00000040       0x20 sample1.o
 .debug_aranges
                0x00000060       0x20 log_output.o
 .debug_aranges
                0x00000080       0x20 vasyslog.o
 .debug_aranges
                0x000000a0       0x20 t_perror.o
 .debug_aranges
                0x000000c0       0x20 strerror.o
 .debug_aranges
                0x000000e0       0x20 cache.o
 .debug_aranges
                0x00000100       0x20 init_tecs.o
 .debug_aranges
                0x00000120       0x18 tTask_tecsgen.o
 .debug_aranges
                0x00000138       0x18 tSemaphore_tecsgen.o
 .debug_aranges
                0x00000150       0x18 tInterruptRequest_tecsgen.o
 .debug_aranges
                0x00000168       0x18 tISR_tecsgen.o
 .debug_aranges
                0x00000180       0x18 tInitializeRoutine_tecsgen.o
 .debug_aranges
                0x00000198       0x18 tTerminateRoutine_tecsgen.o
 .debug_aranges
                0x000001b0       0x20 tSerialPortMain_tecsgen.o
 .debug_aranges
                0x000001d0       0x18 tSerialAdapter_tecsgen.o
 .debug_aranges
                0x000001e8       0x20 tSysLog_tecsgen.o
 .debug_aranges
                0x00000208       0x18 tSysLogAdapter_tecsgen.o
 .debug_aranges
                0x00000220       0x18 tLogTaskMain_tecsgen.o
 .debug_aranges
                0x00000238       0x18 tBannerMain_tecsgen.o
 .debug_aranges
                0x00000250       0x18 tPutLogGRPeach_tecsgen.o
 .debug_aranges
                0x00000268       0x20 tSCIF_tecsgen.o
 .debug_aranges
                0x00000288       0x18 tSIOPortGRPeachMain_tecsgen.o
 .debug_aranges
                0x000002a0       0x20 tTask.o
 .debug_aranges
                0x000002c0       0x20 tISR.o
 .debug_aranges
                0x000002e0       0x20 tInitializeRoutine.o
 .debug_aranges
                0x00000300       0x20 tTerminateRoutine.o
 .debug_aranges
                0x00000320       0x20 tSerialPortMain.o
 .debug_aranges
                0x00000340       0x20 tSerialAdapter.o
 .debug_aranges
                0x00000360       0x20 tSysLog.o
 .debug_aranges
                0x00000380       0x20 tSysLogAdapter.o
 .debug_aranges
                0x000003a0       0x20 tLogTaskMain.o
 .debug_aranges
                0x000003c0       0x20 tBannerMain.o
 .debug_aranges
                0x000003e0       0x20 tPutLogGRPeach.o
 .debug_aranges
                0x00000400       0x20 tSCIF.o
 .debug_aranges
                0x00000420       0x20 assert.o
 .debug_aranges
                0x00000440       0x20 board.o
 .debug_aranges
                0x00000460       0x20 error.o
 .debug_aranges
                0x00000480       0x20 gpio.o
 .debug_aranges
                0x000004a0       0x18 lp_ticker_api.o
 .debug_aranges
                0x000004b8       0x20 mbed_interface.o
 .debug_aranges
                0x000004d8       0x20 pinmap_common.o
 .debug_aranges
                0x000004f8       0x20 rtc_time.o
 .debug_aranges
                0x00000518       0x18 semihost_api.o
 .debug_aranges
                0x00000530       0x20 ticker_api.o
 .debug_aranges
                0x00000550       0x20 us_ticker_api.o
 .debug_aranges
                0x00000570       0x20 RZ_A1_Init.o
 .debug_aranges
                0x00000590       0x20 cmsis_nvic.o
 .debug_aranges
                0x000005b0       0x20 gic.o
 .debug_aranges
                0x000005d0       0x18 mbed_sf_boot.o
 .debug_aranges
                0x000005e8       0x20 mmu_Renesas_RZ_A1.o
 .debug_aranges
                0x00000608       0x20 nvic_wrapper.o
 .debug_aranges
                0x00000628       0x20 pl310.o
 .debug_aranges
                0x00000648       0x20 rza_io_regrw.o
 .debug_aranges
                0x00000668       0x20 system_MBRZA1H.o
 .debug_aranges
                0x00000688       0x20 analogin_api.o
 .debug_aranges
                0x000006a8       0x20 can_api.o
 .debug_aranges
                0x000006c8       0x20 ethernet_api.o
 .debug_aranges
                0x000006e8       0x20 gpio_api.o
 .debug_aranges
                0x00000708       0x20 gpio_irq_api.o
 .debug_aranges
                0x00000728       0x20 i2c_api.o
 .debug_aranges
                0x00000748       0x20 pinmap.o
 .debug_aranges
                0x00000768       0x20 port_api.o
 .debug_aranges
                0x00000788       0x20 pwmout_api.o
 .debug_aranges
                0x000007a8       0x20 rtc_api.o
 .debug_aranges
                0x000007c8       0x20 serial_api.o
 .debug_aranges
                0x000007e8       0x20 spi_api.o
 .debug_aranges
                0x00000808       0x20 net_buf.o
 .debug_aranges
                0x00000828       0x18 net_count.o
 .debug_aranges
                0x00000840       0x20 net_subr.o
 .debug_aranges
                0x00000860       0x20 net_timer.o
 .debug_aranges
                0x00000880       0x20 in_subr.o
 .debug_aranges
                0x000008a0       0x18 tinet_cfg.o
 .debug_aranges
                0x000008b8       0x18 route_cfg.o
 .debug_aranges
                0x000008d0       0x20 ip_input.o
 .debug_aranges
                0x000008f0       0x20 ip_output.o
 .debug_aranges
                0x00000910       0x20 ip_icmp.o
 .debug_aranges
                0x00000930       0x20 tinet_target_config.o
 .debug_aranges
                0x00000950       0x20 if.o
 .debug_aranges
                0x00000970       0x20 ethernet.o
 .debug_aranges
                0x00000990       0x20 if_ether.o
 .debug_aranges
                0x000009b0       0x20 if_mbed.o
 .debug_aranges
                0x000009d0       0x20 tcp_input.o
 .debug_aranges
                0x000009f0       0x20 tcp_output.o
 .debug_aranges
                0x00000a10       0x20 tcp_timer.o
 .debug_aranges
                0x00000a30       0x20 tcp_subr.o
 .debug_aranges
                0x00000a50       0x18 tcp_subr_cs.o
 .debug_aranges
                0x00000a68       0x20 tcp_subr_ncs.o
 .debug_aranges
                0x00000a88       0x20 tcp_usrreq.o
 .debug_aranges
                0x00000aa8       0x20 kernel_cfg.o
 .debug_aranges
                0x00000ac8       0x28 .\libkernel.a(core_support.o)
 .debug_aranges
                0x00000af0       0x20 .\libkernel.a(target_kernel_impl.o)
 .debug_aranges
                0x00000b10       0x20 .\libkernel.a(chip_kernel_impl.o)
 .debug_aranges
                0x00000b30       0x20 .\libkernel.a(gic_kernel_impl.o)
 .debug_aranges
                0x00000b50       0x20 .\libkernel.a(chip_timer.o)
 .debug_aranges
                0x00000b70       0x20 .\libkernel.a(core_kernel_impl.o)
 .debug_aranges
                0x00000b90       0x20 .\libkernel.a(arm.o)
 .debug_aranges
                0x00000bb0       0x20 .\libkernel.a(startup.o)
 .debug_aranges
                0x00000bd0       0x20 .\libkernel.a(task.o)
 .debug_aranges
                0x00000bf0       0x18 .\libkernel.a(taskhook.o)
 .debug_aranges
                0x00000c08       0x20 .\libkernel.a(time_event.o)
 .debug_aranges
                0x00000c28       0x20 .\libkernel.a(task_manage.o)
 .debug_aranges
                0x00000c48       0x20 .\libkernel.a(task_sync.o)
 .debug_aranges
                0x00000c68       0x20 .\libkernel.a(task_term.o)
 .debug_aranges
                0x00000c88       0x20 .\libkernel.a(semaphore.o)
 .debug_aranges
                0x00000ca8       0x20 .\libkernel.a(eventflag.o)
 .debug_aranges
                0x00000cc8       0x20 .\libkernel.a(dataqueue.o)
 .debug_aranges
                0x00000ce8       0x20 .\libkernel.a(mempfix.o)
 .debug_aranges
                0x00000d08       0x20 .\libkernel.a(time_manage.o)
 .debug_aranges
                0x00000d28       0x20 .\libkernel.a(cyclic.o)
 .debug_aranges
                0x00000d48       0x20 .\libkernel.a(alarm.o)
 .debug_aranges
                0x00000d68       0x20 .\libkernel.a(sys_manage.o)
 .debug_aranges
                0x00000d88       0x20 .\libkernel.a(interrupt.o)
 .debug_aranges
                0x00000da8       0x20 .\libkernel.a(exception.o)
 .debug_aranges
                0x00000dc8       0x20 .\libkernel.a(gic_support.o)
 .debug_aranges
                0x00000de8       0x20 .\libkernel.a(wait.o)

.debug_loc      0x00000000    0x1c0a5
 .debug_loc     0x00000000      0xa21 sample1n.o
 .debug_loc     0x00000a21     0x1406 sample1.o
 .debug_loc     0x00001e27      0x4a3 log_output.o
 .debug_loc     0x000022ca      0x243 vasyslog.o
 .debug_loc     0x0000250d       0x97 t_perror.o
 .debug_loc     0x000025a4       0x21 strerror.o
 .debug_loc     0x000025c5      0x284 tSerialPortMain_tecsgen.o
 .debug_loc     0x00002849       0xb6 tSCIF_tecsgen.o
 .debug_loc     0x000028ff       0x42 tTask.o
 .debug_loc     0x00002941       0x42 tISR.o
 .debug_loc     0x00002983       0x42 tInitializeRoutine.o
 .debug_loc     0x000029c5       0x42 tTerminateRoutine.o
 .debug_loc     0x00002a07      0x936 tSerialPortMain.o
 .debug_loc     0x0000333d      0x210 tSerialAdapter.o
 .debug_loc     0x0000354d      0x2d7 tSysLog.o
 .debug_loc     0x00003824       0xc6 tSysLogAdapter.o
 .debug_loc     0x000038ea      0x155 tLogTaskMain.o
 .debug_loc     0x00003a3f       0x47 tBannerMain.o
 .debug_loc     0x00003a86       0x49 tPutLogGRPeach.o
 .debug_loc     0x00003acf      0x9a4 tSCIF.o
 .debug_loc     0x00004473       0x84 assert.o
 .debug_loc     0x000044f7      0x3ef gpio.o
 .debug_loc     0x000048e6      0x2aa pinmap_common.o
 .debug_loc     0x00004b90       0x88 rtc_time.o
 .debug_loc     0x00004c18      0x269 ticker_api.o
 .debug_loc     0x00004e81       0x87 cmsis_nvic.o
 .debug_loc     0x00004f08      0x486 gic.o
 .debug_loc     0x0000538e     0x13ee mmu_Renesas_RZ_A1.o
 .debug_loc     0x0000677c      0x3a5 nvic_wrapper.o
 .debug_loc     0x00006b21       0x9f pl310.o
 .debug_loc     0x00006bc0      0x271 rza_io_regrw.o
 .debug_loc     0x00006e31      0x2be system_MBRZA1H.o
 .debug_loc     0x000070ef       0x81 analogin_api.o
 .debug_loc     0x00007170      0xd65 can_api.o
 .debug_loc     0x00007ed5      0x779 ethernet_api.o
 .debug_loc     0x0000864e       0xb4 gpio_api.o
 .debug_loc     0x00008702      0x2c7 gpio_irq_api.o
 .debug_loc     0x000089c9     0x1262 i2c_api.o
 .debug_loc     0x00009c2b      0x101 pinmap.o
 .debug_loc     0x00009d2c      0x1a3 port_api.o
 .debug_loc     0x00009ecf      0x655 pwmout_api.o
 .debug_loc     0x0000a524      0x2f9 rtc_api.o
 .debug_loc     0x0000a81d      0x90f serial_api.o
 .debug_loc     0x0000b12c      0x76f spi_api.o
 .debug_loc     0x0000b89b      0x53b net_buf.o
 .debug_loc     0x0000bdd6      0x2ef net_subr.o
 .debug_loc     0x0000c0c5      0x1f1 net_timer.o
 .debug_loc     0x0000c2b6      0x9fe in_subr.o
 .debug_loc     0x0000ccb4      0x56c ip_input.o
 .debug_loc     0x0000d220      0x1d1 ip_output.o
 .debug_loc     0x0000d3f1      0x362 ip_icmp.o
 .debug_loc     0x0000d753       0x34 if.o
 .debug_loc     0x0000d787      0x328 ethernet.o
 .debug_loc     0x0000daaf      0x50b if_ether.o
 .debug_loc     0x0000dfba      0x363 if_mbed.o
 .debug_loc     0x0000e31d      0xfd8 tcp_input.o
 .debug_loc     0x0000f2f5      0x598 tcp_output.o
 .debug_loc     0x0000f88d      0x485 tcp_timer.o
 .debug_loc     0x0000fd12      0xdc6 tcp_subr.o
 .debug_loc     0x00010ad8      0x46f tcp_subr_ncs.o
 .debug_loc     0x00010f47      0xb5d tcp_usrreq.o
 .debug_loc     0x00011aa4      0x717 .\libkernel.a(target_kernel_impl.o)
 .debug_loc     0x000121bb      0x5f8 .\libkernel.a(chip_kernel_impl.o)
 .debug_loc     0x000127b3      0x138 .\libkernel.a(gic_kernel_impl.o)
 .debug_loc     0x000128eb       0x47 .\libkernel.a(chip_timer.o)
 .debug_loc     0x00012932      0x58f .\libkernel.a(core_kernel_impl.o)
 .debug_loc     0x00012ec1      0x133 .\libkernel.a(arm.o)
 .debug_loc     0x00012ff4       0x47 .\libkernel.a(startup.o)
 .debug_loc     0x0001303b      0x8fa .\libkernel.a(task.o)
 .debug_loc     0x00013935      0x42f .\libkernel.a(time_event.o)
 .debug_loc     0x00013d64      0xa07 .\libkernel.a(task_manage.o)
 .debug_loc     0x0001476b      0x79a .\libkernel.a(task_sync.o)
 .debug_loc     0x00014f05      0x32e .\libkernel.a(task_term.o)
 .debug_loc     0x00015233      0xbfd .\libkernel.a(semaphore.o)
 .debug_loc     0x00015e30     0x1085 .\libkernel.a(eventflag.o)
 .debug_loc     0x00016eb5     0x15f3 .\libkernel.a(dataqueue.o)
 .debug_loc     0x000184a8      0xe99 .\libkernel.a(mempfix.o)
 .debug_loc     0x00019341      0x754 .\libkernel.a(time_manage.o)
 .debug_loc     0x00019a95      0x7cf .\libkernel.a(cyclic.o)
 .debug_loc     0x0001a264      0x74c .\libkernel.a(alarm.o)
 .debug_loc     0x0001a9b0      0x563 .\libkernel.a(sys_manage.o)
 .debug_loc     0x0001af13      0x9f4 .\libkernel.a(interrupt.o)
 .debug_loc     0x0001b907       0xe5 .\libkernel.a(exception.o)
 .debug_loc     0x0001b9ec      0x6b9 .\libkernel.a(wait.o)

.debug_str      0x00000000     0xffc4
 .debug_str     0x00000000      0x43d sample1n.o
                                0x515 (size before relaxing)
 .debug_str     0x0000043d      0x3c2 sample1.o
                                0x6c1 (size before relaxing)
 .debug_str     0x000007ff       0x86 log_output.o
                                0x2c6 (size before relaxing)
 .debug_str     0x00000885       0x16 vasyslog.o
                                0x26d (size before relaxing)
 .debug_str     0x0000089b       0x2f t_perror.o
                                0x292 (size before relaxing)
 .debug_str     0x000008ca       0x16 strerror.o
                                0x1df (size before relaxing)
 .debug_str     0x000008e0      0x15a init_tecs.o
                                0x22b (size before relaxing)
 .debug_str     0x00000a3a      0x1e9 tTask_tecsgen.o
                                0x449 (size before relaxing)
 .debug_str     0x00000c23       0x43 tSemaphore_tecsgen.o
                                0x201 (size before relaxing)
 .debug_str     0x00000c66       0x22 tInterruptRequest_tecsgen.o
                                0x22d (size before relaxing)
 .debug_str     0x00000c88       0xb0 tISR_tecsgen.o
                                0x26e (size before relaxing)
 .debug_str     0x00000d38       0x23 tInitializeRoutine_tecsgen.o
                                0x1e0 (size before relaxing)
 .debug_str     0x00000d5b       0x22 tTerminateRoutine_tecsgen.o
                                0x431 (size before relaxing)
 .debug_str     0x00000d7d      0x362 tSerialPortMain_tecsgen.o
                                0x7c7 (size before relaxing)
 .debug_str     0x000010df       0x7f tSerialAdapter_tecsgen.o
                                0x317 (size before relaxing)
 .debug_str     0x0000115e       0xd8 tSysLog_tecsgen.o
                                0x54d (size before relaxing)
 .debug_str     0x00001236       0x1f tSysLogAdapter_tecsgen.o
                                0x42e (size before relaxing)
 .debug_str     0x00001255       0x64 tLogTaskMain_tecsgen.o
                                0x48c (size before relaxing)
 .debug_str     0x000012b9       0x69 tBannerMain_tecsgen.o
                                0x237 (size before relaxing)
 .debug_str     0x00001322       0x1f tPutLogGRPeach_tecsgen.o
                                0x42e (size before relaxing)
 .debug_str     0x00001341       0xd5 tSCIF_tecsgen.o
                                0x577 (size before relaxing)
 .debug_str     0x00001416       0x24 tSIOPortGRPeachMain_tecsgen.o
                                0x433 (size before relaxing)
 .debug_str     0x0000143a       0x4b tTask.o
                                0x494 (size before relaxing)
 .debug_str     0x00001485       0x21 tISR.o
                                0x259 (size before relaxing)
 .debug_str     0x000014a6       0x80 tInitializeRoutine.o
                                0x276 (size before relaxing)
 .debug_str     0x00001526       0x78 tTerminateRoutine.o
                                0x4c5 (size before relaxing)
 .debug_str     0x0000159e      0x3ee tSerialPortMain.o
                                0x9dc (size before relaxing)
 .debug_str     0x0000198c       0x39 tSerialAdapter.o
                                0x34c (size before relaxing)
 .debug_str     0x000019c5      0x152 tSysLog.o
                                0x6d6 (size before relaxing)
 .debug_str     0x00001b17       0x48 tSysLogAdapter.o
                                0x574 (size before relaxing)
 .debug_str     0x00001b5f       0x63 tLogTaskMain.o
                                0x72f (size before relaxing)
 .debug_str     0x00001bc2       0x18 tBannerMain.o
                                0x30b (size before relaxing)
 .debug_str     0x00001bda       0x42 tPutLogGRPeach.o
                                0x594 (size before relaxing)
 .debug_str     0x00001c1c       0xbc tSCIF.o
                                0x717 (size before relaxing)
 .debug_str     0x00001cd8       0x2d assert.o
                                0x165 (size before relaxing)
 .debug_str     0x00001d05      0x502 board.o
                                0x6f9 (size before relaxing)
 .debug_str     0x00002207      0x392 error.o
                                0x5cf (size before relaxing)
 .debug_str     0x00002599       0xe4 gpio.o
                                0x79f (size before relaxing)
 .debug_str     0x0000267d       0x1f lp_ticker_api.o
                                0x1ca (size before relaxing)
 .debug_str     0x0000269c       0x31 mbed_interface.o
                                0x1e1 (size before relaxing)
 .debug_str     0x000026cd       0xa5 pinmap_common.o
                                0x755 (size before relaxing)
 .debug_str     0x00002772       0xb7 rtc_time.o
                                0x29b (size before relaxing)
 .debug_str     0x00002829       0x1e semihost_api.o
                                0x1ce (size before relaxing)
 .debug_str     0x00002847       0xe6 ticker_api.o
                                0x364 (size before relaxing)
 .debug_str     0x0000292d       0x64 us_ticker_api.o
                                0x317 (size before relaxing)
 .debug_str     0x00002991      0x658 RZ_A1_Init.o
                                0x842 (size before relaxing)
 .debug_str     0x00002fe9     0x1b29 cmsis_nvic.o
                               0x1d1f (size before relaxing)
 .debug_str     0x00004b12      0x397 gic.o
                               0x2064 (size before relaxing)
 .debug_str     0x00004ea9       0x4e mbed_sf_boot.o
                                0x17a (size before relaxing)
 .debug_str     0x00004ef7      0x58a mmu_Renesas_RZ_A1.o
                                0x7b7 (size before relaxing)
 .debug_str     0x00005481      0x207 nvic_wrapper.o
                               0x1fa0 (size before relaxing)
 .debug_str     0x00005688      0x369 pl310.o
                                0x5a6 (size before relaxing)
 .debug_str     0x000059f1       0xd7 rza_io_regrw.o
                                0x2d0 (size before relaxing)
 .debug_str     0x00005ac8      0x1cb system_MBRZA1H.o
                               0x1ef7 (size before relaxing)
 .debug_str     0x00005c93      0x190 analogin_api.o
                                0xa8c (size before relaxing)
 .debug_str     0x00005e23     0x28f5 can_api.o
                               0x4d7f (size before relaxing)
 .debug_str     0x00008718     0x116e ethernet_api.o
                               0x30d0 (size before relaxing)
 .debug_str     0x00009886       0x4b gpio_api.o
                                0x762 (size before relaxing)
 .debug_str     0x000098d1     0x13f4 gpio_irq_api.o
                               0x3677 (size before relaxing)
 .debug_str     0x0000acc5      0x3ce i2c_api.o
                                0xd59 (size before relaxing)
 .debug_str     0x0000b093       0x6b pinmap.o
                                0x71d (size before relaxing)
 .debug_str     0x0000b0fe       0xba port_api.o
                                0x7a3 (size before relaxing)
 .debug_str     0x0000b1b8      0x81b pwmout_api.o
                               0x1230 (size before relaxing)
 .debug_str     0x0000b9d3      0x1ff rtc_api.o
                                0x472 (size before relaxing)
 .debug_str     0x0000bbd2      0x524 serial_api.o
                               0x2a1c (size before relaxing)
 .debug_str     0x0000c0f6      0x239 spi_api.o
                                0xbd3 (size before relaxing)
 .debug_str     0x0000c32f      0x196 net_buf.o
                                0x3ec (size before relaxing)
 .debug_str     0x0000c4c5       0xea net_count.o
                                0x2b6 (size before relaxing)
 .debug_str     0x0000c5af       0x9d net_subr.o
                                0x2dc (size before relaxing)
 .debug_str     0x0000c64c       0x9f net_timer.o
                                0x2de (size before relaxing)
 .debug_str     0x0000c6eb      0x2b7 in_subr.o
                                0x634 (size before relaxing)
 .debug_str     0x0000c9a2      0x2d5 tinet_cfg.o
                                0x7b1 (size before relaxing)
 .debug_str     0x0000cc77       0x16 route_cfg.o
                                0x24f (size before relaxing)
 .debug_str     0x0000cc8d       0xec ip_input.o
                                0x504 (size before relaxing)
 .debug_str     0x0000cd79       0x7c ip_output.o
                                0x389 (size before relaxing)
 .debug_str     0x0000cdf5       0xac ip_icmp.o
                                0x472 (size before relaxing)
 .debug_str     0x0000cea1       0x4b tinet_target_config.o
                                0x203 (size before relaxing)
 .debug_str     0x0000ceec       0x4f if.o
                                0x2e2 (size before relaxing)
 .debug_str     0x0000cf3b      0x169 ethernet.o
                                0x614 (size before relaxing)
 .debug_str     0x0000d0a4      0x126 if_ether.o
                                0x680 (size before relaxing)
 .debug_str     0x0000d1ca      0x110 if_mbed.o
                                0xb7d (size before relaxing)
 .debug_str     0x0000d2da      0x30f tcp_input.o
                                0x944 (size before relaxing)
 .debug_str     0x0000d5e9      0x10f tcp_output.o
                                0x736 (size before relaxing)
 .debug_str     0x0000d6f8       0x8f tcp_timer.o
                                0x6d0 (size before relaxing)
 .debug_str     0x0000d787      0x13f tcp_subr.o
                                0xaed (size before relaxing)
 .debug_str     0x0000d8c6       0x1f tcp_subr_cs.o
                                0x1dc (size before relaxing)
 .debug_str     0x0000d8e5       0xc4 tcp_subr_ncs.o
                                0x79f (size before relaxing)
 .debug_str     0x0000d9a9       0xa1 tcp_usrreq.o
                                0x9db (size before relaxing)
 .debug_str     0x0000da4a      0xfd8 kernel_cfg.o
                               0x31ca (size before relaxing)
 .debug_str     0x0000ea22      0x187 .\libkernel.a(target_kernel_impl.o)
                                0x468 (size before relaxing)
 .debug_str     0x0000eba9      0x231 .\libkernel.a(chip_kernel_impl.o)
                                0x5d4 (size before relaxing)
 .debug_str     0x0000edda       0x3b .\libkernel.a(gic_kernel_impl.o)
                                0x2b4 (size before relaxing)
 .debug_str     0x0000ee15       0xb3 .\libkernel.a(chip_timer.o)
                                0x364 (size before relaxing)
 .debug_str     0x0000eec8       0xf3 .\libkernel.a(core_kernel_impl.o)
                                0x48f (size before relaxing)
 .debug_str     0x0000efbb       0xda .\libkernel.a(arm.o)
                                0x2d8 (size before relaxing)
 .debug_str     0x0000f095       0xfe .\libkernel.a(startup.o)
                                0x45e (size before relaxing)
 .debug_str     0x0000f193      0x31e .\libkernel.a(task.o)
                                0x864 (size before relaxing)
 .debug_str     0x0000f4b1       0x50 .\libkernel.a(taskhook.o)
                                0x453 (size before relaxing)
 .debug_str     0x0000f501      0x1eb .\libkernel.a(time_event.o)
                                0x65a (size before relaxing)
 .debug_str     0x0000f6ec       0x69 .\libkernel.a(task_manage.o)
                                0x709 (size before relaxing)
 .debug_str     0x0000f755       0x59 .\libkernel.a(task_sync.o)
                                0x6a2 (size before relaxing)
 .debug_str     0x0000f7ae       0x5e .\libkernel.a(task_term.o)
                                0x632 (size before relaxing)
 .debug_str     0x0000f80c      0x124 .\libkernel.a(semaphore.o)
                                0x87c (size before relaxing)
 .debug_str     0x0000f930       0xf6 .\libkernel.a(eventflag.o)
                                0x8de (size before relaxing)
 .debug_str     0x0000fa26      0x1b1 .\libkernel.a(dataqueue.o)
                                0xa23 (size before relaxing)
 .debug_str     0x0000fbd7       0xeb .\libkernel.a(mempfix.o)
                                0x94c (size before relaxing)
 .debug_str     0x0000fcc2       0x68 .\libkernel.a(time_manage.o)
                                0x814 (size before relaxing)
 .debug_str     0x0000fd2a       0x8f .\libkernel.a(cyclic.o)
                                0x745 (size before relaxing)
 .debug_str     0x0000fdb9       0x75 .\libkernel.a(alarm.o)
                                0x721 (size before relaxing)
 .debug_str     0x0000fe2e       0x3e .\libkernel.a(sys_manage.o)
                                0x624 (size before relaxing)
 .debug_str     0x0000fe6c       0x93 .\libkernel.a(interrupt.o)
                                0x89a (size before relaxing)
 .debug_str     0x0000feff       0x58 .\libkernel.a(exception.o)
                                0x4af (size before relaxing)
 .debug_str     0x0000ff57       0x6d .\libkernel.a(wait.o)
                                0x766 (size before relaxing)

.debug_frame    0x00000000     0x4d3c
 .debug_frame   0x00000000      0x194 sample1n.o
 .debug_frame   0x00000194       0xe4 sample1.o
 .debug_frame   0x00000278       0x94 log_output.o
 .debug_frame   0x0000030c       0x34 vasyslog.o
 .debug_frame   0x00000340       0x34 t_perror.o
 .debug_frame   0x00000374       0x20 strerror.o
 .debug_frame   0x00000394       0x28 init_tecs.o
 .debug_frame   0x000003bc       0xbc tSerialPortMain_tecsgen.o
 .debug_frame   0x00000478       0x20 tSysLog_tecsgen.o
 .debug_frame   0x00000498       0x58 tSCIF_tecsgen.o
 .debug_frame   0x000004f0       0x28 tTask.o
 .debug_frame   0x00000518       0x28 tISR.o
 .debug_frame   0x00000540       0x28 tInitializeRoutine.o
 .debug_frame   0x00000568       0x28 tTerminateRoutine.o
 .debug_frame   0x00000590      0x168 tSerialPortMain.o
 .debug_frame   0x000006f8       0xb0 tSerialAdapter.o
 .debug_frame   0x000007a8       0xa8 tSysLog.o
 .debug_frame   0x00000850       0x88 tSysLogAdapter.o
 .debug_frame   0x000008d8       0xac tLogTaskMain.o
 .debug_frame   0x00000984       0x28 tBannerMain.o
 .debug_frame   0x000009ac       0x44 tPutLogGRPeach.o
 .debug_frame   0x000009f0       0xac tSCIF.o
 .debug_frame   0x00000a9c       0x28 assert.o
 .debug_frame   0x00000ac4       0x2c board.o
 .debug_frame   0x00000af0       0x34 error.o
 .debug_frame   0x00000b24       0x94 gpio.o
 .debug_frame   0x00000bb8       0x20 mbed_interface.o
 .debug_frame   0x00000bd8       0x90 pinmap_common.o
 .debug_frame   0x00000c68       0x68 rtc_time.o
 .debug_frame   0x00000cd0       0xa4 ticker_api.o
 .debug_frame   0x00000d74       0x38 us_ticker_api.o
 .debug_frame   0x00000dac       0x50 RZ_A1_Init.o
 .debug_frame   0x00000dfc       0x38 cmsis_nvic.o
 .debug_frame   0x00000e34      0x1e4 gic.o
 .debug_frame   0x00001018       0x40 mmu_Renesas_RZ_A1.o
 .debug_frame   0x00001058      0x178 nvic_wrapper.o
 .debug_frame   0x000011d0       0xe8 pl310.o
 .debug_frame   0x000012b8       0x70 rza_io_regrw.o
 .debug_frame   0x00001328       0xb8 system_MBRZA1H.o
 .debug_frame   0x000013e0       0x54 analogin_api.o
 .debug_frame   0x00001434      0x5a8 can_api.o
 .debug_frame   0x000019dc      0x2b0 ethernet_api.o
 .debug_frame   0x00001c8c       0x64 gpio_api.o
 .debug_frame   0x00001cf0      0x164 gpio_irq_api.o
 .debug_frame   0x00001e54      0x240 i2c_api.o
 .debug_frame   0x00002094       0x3c pinmap.o
 .debug_frame   0x000020d0       0x90 port_api.o
 .debug_frame   0x00002160      0x120 pwmout_api.o
 .debug_frame   0x00002280       0xd4 rtc_api.o
 .debug_frame   0x00002354      0x340 serial_api.o
 .debug_frame   0x00002694       0xd8 spi_api.o
 .debug_frame   0x0000276c      0x110 net_buf.o
 .debug_frame   0x0000287c       0xa4 net_subr.o
 .debug_frame   0x00002920       0x8c net_timer.o
 .debug_frame   0x000029ac      0x1fc in_subr.o
 .debug_frame   0x00002ba8       0xd0 ip_input.o
 .debug_frame   0x00002c78       0x38 ip_output.o
 .debug_frame   0x00002cb0       0xac ip_icmp.o
 .debug_frame   0x00002d5c       0x30 tinet_target_config.o
 .debug_frame   0x00002d8c       0x40 if.o
 .debug_frame   0x00002dcc       0xdc ethernet.o
 .debug_frame   0x00002ea8      0x100 if_ether.o
 .debug_frame   0x00002fa8      0x140 if_mbed.o
 .debug_frame   0x000030e8      0x1bc tcp_input.o
 .debug_frame   0x000032a4       0x88 tcp_output.o
 .debug_frame   0x0000332c       0xc8 tcp_timer.o
 .debug_frame   0x000033f4      0x258 tcp_subr.o
 .debug_frame   0x0000364c      0x14c tcp_subr_ncs.o
 .debug_frame   0x00003798      0x1a0 tcp_usrreq.o
 .debug_frame   0x00003938       0xa0 kernel_cfg.o
 .debug_frame   0x000039d8      0x128 .\libkernel.a(target_kernel_impl.o)
 .debug_frame   0x00003b00       0x68 .\libkernel.a(chip_kernel_impl.o)
 .debug_frame   0x00003b68       0x50 .\libkernel.a(gic_kernel_impl.o)
 .debug_frame   0x00003bb8       0x68 .\libkernel.a(chip_timer.o)
 .debug_frame   0x00003c20       0xc8 .\libkernel.a(core_kernel_impl.o)
 .debug_frame   0x00003ce8       0x98 .\libkernel.a(arm.o)
 .debug_frame   0x00003d80       0x88 .\libkernel.a(startup.o)
 .debug_frame   0x00003e08       0xf0 .\libkernel.a(task.o)
 .debug_frame   0x00003ef8      0x120 .\libkernel.a(time_event.o)
 .debug_frame   0x00004018       0xcc .\libkernel.a(task_manage.o)
 .debug_frame   0x000040e4       0xd0 .\libkernel.a(task_sync.o)
 .debug_frame   0x000041b4       0x90 .\libkernel.a(task_term.o)
 .debug_frame   0x00004244      0x104 .\libkernel.a(semaphore.o)
 .debug_frame   0x00004348      0x138 .\libkernel.a(eventflag.o)
 .debug_frame   0x00004480      0x1f8 .\libkernel.a(dataqueue.o)
 .debug_frame   0x00004678      0x134 .\libkernel.a(mempfix.o)
 .debug_frame   0x000047ac       0x94 .\libkernel.a(time_manage.o)
 .debug_frame   0x00004840       0xdc .\libkernel.a(cyclic.o)
 .debug_frame   0x0000491c       0xd8 .\libkernel.a(alarm.o)
 .debug_frame   0x000049f4       0xf0 .\libkernel.a(sys_manage.o)
 .debug_frame   0x00004ae4       0xc8 .\libkernel.a(interrupt.o)
 .debug_frame   0x00004bac       0x20 .\libkernel.a(exception.o)
 .debug_frame   0x00004bcc       0xe4 .\libkernel.a(wait.o)
 .debug_frame   0x00004cb0       0x20 c:/program files (x86)/kpit/gnuarm-nonev16.01-eabi/arm-none-eabi/arm-none-eabi/bin/../lib/gcc/arm-none-eabi/5.2-GNUARM-NONE_v16.01/../../../../arm-none-eabi/lib/armv7-ar/thumb/fpu\libc.a(lib_a-strcmp.o)
 .debug_frame   0x00004cd0       0x20 c:/program files (x86)/kpit/gnuarm-nonev16.01-eabi/arm-none-eabi/arm-none-eabi/bin/../lib/gcc/arm-none-eabi/5.2-GNUARM-NONE_v16.01/armv7-ar/thumb/fpu\libgcc.a(_udivsi3.o)
 .debug_frame   0x00004cf0       0x20 c:/program files (x86)/kpit/gnuarm-nonev16.01-eabi/arm-none-eabi/arm-none-eabi/bin/../lib/gcc/arm-none-eabi/5.2-GNUARM-NONE_v16.01/armv7-ar/thumb/fpu\libgcc.a(_divsi3.o)
 .debug_frame   0x00004d10       0x2c c:/program files (x86)/kpit/gnuarm-nonev16.01-eabi/arm-none-eabi/arm-none-eabi/bin/../lib/gcc/arm-none-eabi/5.2-GNUARM-NONE_v16.01/armv7-ar/thumb/fpu\libgcc.a(_aeabi_uldivmod.o)

.debug_ranges   0x00000000      0x518
 .debug_ranges  0x00000000       0x48 sample1.o
 .debug_ranges  0x00000048       0x30 tSerialPortMain.o
 .debug_ranges  0x00000078       0x18 tSCIF.o
 .debug_ranges  0x00000090      0x200 i2c_api.o
 .debug_ranges  0x00000290       0x18 pwmout_api.o
 .debug_ranges  0x000002a8       0x18 ip_output.o
 .debug_ranges  0x000002c0       0x20 tcp_input.o
 .debug_ranges  0x000002e0       0x20 tcp_output.o
 .debug_ranges  0x00000300       0x18 tcp_usrreq.o
 .debug_ranges  0x00000318       0x20 .\libkernel.a(core_support.o)
 .debug_ranges  0x00000338       0x30 .\libkernel.a(chip_kernel_impl.o)
 .debug_ranges  0x00000368       0x78 .\libkernel.a(gic_kernel_impl.o)
 .debug_ranges  0x000003e0       0x18 .\libkernel.a(core_kernel_impl.o)
 .debug_ranges  0x000003f8       0x18 .\libkernel.a(task.o)
 .debug_ranges  0x00000410       0x18 .\libkernel.a(time_event.o)
 .debug_ranges  0x00000428       0x18 .\libkernel.a(semaphore.o)
 .debug_ranges  0x00000440       0x18 .\libkernel.a(eventflag.o)
 .debug_ranges  0x00000458       0x18 .\libkernel.a(dataqueue.o)
 .debug_ranges  0x00000470       0x18 .\libkernel.a(mempfix.o)
 .debug_ranges  0x00000488       0x18 .\libkernel.a(cyclic.o)
 .debug_ranges  0x000004a0       0x18 .\libkernel.a(alarm.o)
 .debug_ranges  0x000004b8       0x18 .\libkernel.a(interrupt.o)
 .debug_ranges  0x000004d0       0x48 .\libkernel.a(wait.o)

Cross Reference Table

Symbol                                            File
CDAbtHandler                                      system_MBRZA1H.o
                                                  startup_RZ1AH.o
CPAbtHandler                                      system_MBRZA1H.o
                                                  startup_RZ1AH.o
CUndefHandler                                     system_MBRZA1H.o
                                                  startup_RZ1AH.o
DAbt_Handler                                      startup_RZ1AH.o
FIQ_Handler                                       startup_RZ1AH.o
FPUEnable                                         system_MBRZA1H.o
GICDistributor_BASE                               gic.o
GICInterface_BASE                                 gic.o
GIC_AcknowledgePending                            gic.o
GIC_CPUInterfaceInit                              gic.o
GIC_ClearPendingIRQ                               gic.o
                                                  nvic_wrapper.o
GIC_DisableDistributor                            gic.o
GIC_DisableIRQ                                    gic.o
                                                  serial_api.o
                                                  gpio_irq_api.o
                                                  can_api.o
                                                  nvic_wrapper.o
GIC_DisableInterface                              gic.o
GIC_DistInit                                      gic.o
GIC_DistributorImplementer                        gic.o
GIC_DistributorInfo                               gic.o
GIC_Enable                                        gic.o
                                                  system_MBRZA1H.o
GIC_EnableDistributor                             gic.o
GIC_EnableIRQ                                     gic.o
                                                  serial_api.o
                                                  gpio_irq_api.o
                                                  ethernet_api.o
                                                  can_api.o
                                                  nvic_wrapper.o
GIC_EnableInterface                               gic.o
GIC_EndInterrupt                                  gic.o
GIC_GetBinaryPoint                                gic.o
                                                  nvic_wrapper.o
GIC_GetIRQStatus                                  gic.o
                                                  nvic_wrapper.o
GIC_GetPriority                                   gic.o
                                                  nvic_wrapper.o
GIC_GetTarget                                     gic.o
GIC_InterfacePriorityMask                         gic.o
GIC_SendSGI                                       gic.o
GIC_SetBinaryPoint                                gic.o
                                                  nvic_wrapper.o
GIC_SetICDICFR                                    gic.o
GIC_SetLevelModel                                 gic.o
GIC_SetPendingIRQ                                 gic.o
                                                  nvic_wrapper.o
GIC_SetPriority                                   gic.o
                                                  serial_api.o
                                                  gpio_irq_api.o
                                                  ethernet_api.o
                                                  can_api.o
                                                  nvic_wrapper.o
GIC_SetTarget                                     gic.o
INT_Ether                                         ethernet_api.o
                                                  if_mbed.o
IRQCount                                          system_MBRZA1H.o
                                                  startup_RZ1AH.o
IRQNestLevel                                      system_MBRZA1H.o
                                                  startup_RZ1AH.o
IRQNo                                             gpio_irq_api.o
IRQTable                                          system_MBRZA1H.o
                                                  cmsis_nvic.o
                                                  startup_RZ1AH.o
IRQ_Handler                                       startup_RZ1AH.o
ITM_CheckChar                                     nvic_wrapper.o
ITM_ReceiveChar                                   nvic_wrapper.o
ITM_SendChar                                      nvic_wrapper.o
Image$$RO_DATA$$Base                              mmu_Renesas_RZ_A1.o
Image$$RO_DATA$$Limit                             mmu_Renesas_RZ_A1.o
Image$$RW_DATA$$Base                              mmu_Renesas_RZ_A1.o
Image$$RW_DATA$$Limit                             mmu_Renesas_RZ_A1.o
Image$$RW_DATA_NC$$Base                           mmu_Renesas_RZ_A1.o
Image$$RW_DATA_NC$$Limit                          mmu_Renesas_RZ_A1.o
Image$$TTB$$ZI$$Base                              mmu_Renesas_RZ_A1.o
Image$$VECTORS$$Base                              mmu_Renesas_RZ_A1.o
Image$$VECTORS$$Limit                             mmu_Renesas_RZ_A1.o
Image$$ZI_DATA$$Base                              mmu_Renesas_RZ_A1.o
Image$$ZI_DATA$$Limit                             mmu_Renesas_RZ_A1.o
Image$$ZI_DATA_NC$$Base                           mmu_Renesas_RZ_A1.o
Image$$ZI_DATA_NC$$Limit                          mmu_Renesas_RZ_A1.o
InitMemorySubsystem                               system_MBRZA1H.o
                                                  startup_RZ1AH.o
InterruptHandlerRegister                          system_MBRZA1H.o
                                                  serial_api.o
                                                  gpio_irq_api.o
                                                  can_api.o
                                                  cmsis_nvic.o
InterruptHandlerUnregister                        system_MBRZA1H.o
NVIC_ClearPendingIRQ                              nvic_wrapper.o
NVIC_DecodePriority                               nvic_wrapper.o
NVIC_DisableIRQ                                   nvic_wrapper.o
NVIC_EnableIRQ                                    nvic_wrapper.o
NVIC_EncodePriority                               nvic_wrapper.o
NVIC_GetActive                                    nvic_wrapper.o
NVIC_GetPendingIRQ                                nvic_wrapper.o
NVIC_GetPriority                                  nvic_wrapper.o
NVIC_GetPriorityGrouping                          nvic_wrapper.o
NVIC_GetVector                                    cmsis_nvic.o
NVIC_SetPendingIRQ                                nvic_wrapper.o
NVIC_SetPriority                                  nvic_wrapper.o
NVIC_SetPriorityGrouping                          nvic_wrapper.o
NVIC_SetVector                                    cmsis_nvic.o
NVIC_SystemReset                                  nvic_wrapper.o
PAbt_Handler                                      startup_RZ1AH.o
PL310_CleanInvAllByWay                            pl310.o
PL310_CleanInvPa                                  pl310.o
PL310_CleanPa                                     pl310.o
PL310_Disable                                     pl310.o
PL310_Enable                                      pl310.o
                                                  system_MBRZA1H.o
PL310_GetID                                       pl310.o
                                                  system_MBRZA1H.o
PL310_GetType                                     pl310.o
PL310_InvAllByWay                                 pl310.o
                                                  system_MBRZA1H.o
PL310_InvPa                                       pl310.o
PL310_Sync                                        pl310.o
RIIC                                              i2c_api.o
RZA_IO_RegRead_16                                 rza_io_regrw.o
RZA_IO_RegRead_32                                 rza_io_regrw.o
RZA_IO_RegRead_8                                  rza_io_regrw.o
RZA_IO_RegWrite_16                                rza_io_regrw.o
RZA_IO_RegWrite_32                                rza_io_regrw.o
RZA_IO_RegWrite_8                                 rza_io_regrw.o
RZ_A1_InitBus                                     RZ_A1_Init.o
                                                  system_MBRZA1H.o
RZ_A1_InitClock                                   RZ_A1_Init.o
                                                  system_MBRZA1H.o
RZ_A1_IsClockMode0                                RZ_A1_Init.o
                                                  spi_api.o
                                                  pwmout_api.o
                                                  i2c_api.o
                                                  can_api.o
RZ_A1_SetSramWriteEnable                          RZ_A1_Init.o
                                                  startup_RZ1AH.o
Reset_Handler                                     startup_RZ1AH.o
                                                  .\libkernel.a(core_support.o)
SIOPortTarget1_SCIF_eiRxISR_des                   tSCIF_tecsgen.o
                                                  tISR_tecsgen.o
SIOPortTarget1_SCIF_eiTxISR_des                   tSCIF_tecsgen.o
                                                  tISR_tecsgen.o
SVC_Handler                                       startup_RZ1AH.o
SerialAdapter_cSerialPort                         tSerialAdapter_tecsgen.o
SerialPort1_SerialPortMain_eSerialPort_des        tSerialPortMain_tecsgen.o
                                                  tSerialAdapter_tecsgen.o
SysTick_Config                                    nvic_wrapper.o
SystemInit                                        system_MBRZA1H.o
                                                  startup_RZ1AH.o
Undef_Handler                                     startup_RZ1AH.o
_Balloc                                           c:/program files (x86)/kpit/gnuarm-nonev16.01-eabi/arm-none-eabi/arm-none-eabi/bin/../lib/gcc/arm-none-eabi/5.2-GNUARM-NONE_v16.01/../../../../arm-none-eabi/lib/armv7-ar/thumb/fpu\libc.a(lib_a-mprec.o)
                                                  c:/program files (x86)/kpit/gnuarm-nonev16.01-eabi/arm-none-eabi/arm-none-eabi/bin/../lib/gcc/arm-none-eabi/5.2-GNUARM-NONE_v16.01/../../../../arm-none-eabi/lib/armv7-ar/thumb/fpu\libc.a(lib_a-dtoa.o)
_Bfree                                            c:/program files (x86)/kpit/gnuarm-nonev16.01-eabi/arm-none-eabi/arm-none-eabi/bin/../lib/gcc/arm-none-eabi/5.2-GNUARM-NONE_v16.01/../../../../arm-none-eabi/lib/armv7-ar/thumb/fpu\libc.a(lib_a-mprec.o)
                                                  c:/program files (x86)/kpit/gnuarm-nonev16.01-eabi/arm-none-eabi/arm-none-eabi/bin/../lib/gcc/arm-none-eabi/5.2-GNUARM-NONE_v16.01/../../../../arm-none-eabi/lib/armv7-ar/thumb/fpu\libc.a(lib_a-dtoa.o)
_PathLocale                                       c:/program files (x86)/kpit/gnuarm-nonev16.01-eabi/arm-none-eabi/arm-none-eabi/bin/../lib/gcc/arm-none-eabi/5.2-GNUARM-NONE_v16.01/../../../../arm-none-eabi/lib/armv7-ar/thumb/fpu\libc.a(lib_a-locale.o)
__HeapBase                                        startup_RZ1AH.o
__HeapLimit                                       startup_RZ1AH.o
__StackLimit                                      startup_RZ1AH.o
__StackTop                                        startup_RZ1AH.o
__aeabi_idiv                                      c:/program files (x86)/kpit/gnuarm-nonev16.01-eabi/arm-none-eabi/arm-none-eabi/bin/../lib/gcc/arm-none-eabi/5.2-GNUARM-NONE_v16.01/armv7-ar/thumb/fpu\libgcc.a(_divsi3.o)
                                                  c:/program files (x86)/kpit/gnuarm-nonev16.01-eabi/arm-none-eabi/arm-none-eabi/bin/../lib/gcc/arm-none-eabi/5.2-GNUARM-NONE_v16.01/../../../../arm-none-eabi/lib/armv7-ar/thumb/fpu\libc.a(lib_a-fvwrite.o)
                                                  c:/program files (x86)/kpit/gnuarm-nonev16.01-eabi/arm-none-eabi/arm-none-eabi/bin/../lib/gcc/arm-none-eabi/5.2-GNUARM-NONE_v16.01/../../../../arm-none-eabi/lib/armv7-ar/thumb/fpu\libc.a(lib_a-mprec.o)
                                                  c:/program files (x86)/kpit/gnuarm-nonev16.01-eabi/arm-none-eabi/arm-none-eabi/bin/../lib/gcc/arm-none-eabi/5.2-GNUARM-NONE_v16.01/../../../../arm-none-eabi/lib/armv7-ar/thumb/fpu\libc.a(lib_a-gmtime_r.o)
                                                  c:/program files (x86)/kpit/gnuarm-nonev16.01-eabi/arm-none-eabi/arm-none-eabi/bin/../lib/gcc/arm-none-eabi/5.2-GNUARM-NONE_v16.01/../../../../arm-none-eabi/lib/armv7-ar/thumb/fpu\libc.a(lib_a-div.o)
                                                  c:/program files (x86)/kpit/gnuarm-nonev16.01-eabi/arm-none-eabi/arm-none-eabi/bin/../lib/gcc/arm-none-eabi/5.2-GNUARM-NONE_v16.01/../../../../arm-none-eabi/lib/armv7-ar/thumb/fpu\libc.a(lib_a-vfprintf.o)
                                                  c:/program files (x86)/kpit/gnuarm-nonev16.01-eabi/arm-none-eabi/arm-none-eabi/bin/../lib/gcc/arm-none-eabi/5.2-GNUARM-NONE_v16.01/../../../../arm-none-eabi/lib/armv7-ar/thumb/fpu\libc.a(lib_a-tzcalc_limits.o)
                                                  c:/program files (x86)/kpit/gnuarm-nonev16.01-eabi/arm-none-eabi/arm-none-eabi/bin/../lib/gcc/arm-none-eabi/5.2-GNUARM-NONE_v16.01/../../../../arm-none-eabi/lib/armv7-ar/thumb/fpu\libc.a(lib_a-lcltime_r.o)
                                                  tcp_timer.o
                                                  tcp_input.o
                                                  serial_api.o
__aeabi_idiv0                                     c:/program files (x86)/kpit/gnuarm-nonev16.01-eabi/arm-none-eabi/arm-none-eabi/bin/../lib/gcc/arm-none-eabi/5.2-GNUARM-NONE_v16.01/armv7-ar/thumb/fpu\libgcc.a(_dvmd_tls.o)
                                                  c:/program files (x86)/kpit/gnuarm-nonev16.01-eabi/arm-none-eabi/arm-none-eabi/bin/../lib/gcc/arm-none-eabi/5.2-GNUARM-NONE_v16.01/armv7-ar/thumb/fpu\libgcc.a(_divsi3.o)
                                                  c:/program files (x86)/kpit/gnuarm-nonev16.01-eabi/arm-none-eabi/arm-none-eabi/bin/../lib/gcc/arm-none-eabi/5.2-GNUARM-NONE_v16.01/armv7-ar/thumb/fpu\libgcc.a(_udivsi3.o)
__aeabi_idivmod                                   c:/program files (x86)/kpit/gnuarm-nonev16.01-eabi/arm-none-eabi/arm-none-eabi/bin/../lib/gcc/arm-none-eabi/5.2-GNUARM-NONE_v16.01/armv7-ar/thumb/fpu\libgcc.a(_divsi3.o)
                                                  c:/program files (x86)/kpit/gnuarm-nonev16.01-eabi/arm-none-eabi/arm-none-eabi/bin/../lib/gcc/arm-none-eabi/5.2-GNUARM-NONE_v16.01/../../../../arm-none-eabi/lib/armv7-ar/thumb/fpu\libc.a(lib_a-gmtime_r.o)
                                                  c:/program files (x86)/kpit/gnuarm-nonev16.01-eabi/arm-none-eabi/arm-none-eabi/bin/../lib/gcc/arm-none-eabi/5.2-GNUARM-NONE_v16.01/../../../../arm-none-eabi/lib/armv7-ar/thumb/fpu\libc.a(lib_a-div.o)
                                                  c:/program files (x86)/kpit/gnuarm-nonev16.01-eabi/arm-none-eabi/arm-none-eabi/bin/../lib/gcc/arm-none-eabi/5.2-GNUARM-NONE_v16.01/../../../../arm-none-eabi/lib/armv7-ar/thumb/fpu\libc.a(lib_a-vfprintf.o)
                                                  c:/program files (x86)/kpit/gnuarm-nonev16.01-eabi/arm-none-eabi/arm-none-eabi/bin/../lib/gcc/arm-none-eabi/5.2-GNUARM-NONE_v16.01/../../../../arm-none-eabi/lib/armv7-ar/thumb/fpu\libc.a(lib_a-tzcalc_limits.o)
                                                  c:/program files (x86)/kpit/gnuarm-nonev16.01-eabi/arm-none-eabi/arm-none-eabi/bin/../lib/gcc/arm-none-eabi/5.2-GNUARM-NONE_v16.01/../../../../arm-none-eabi/lib/armv7-ar/thumb/fpu\libc.a(lib_a-mktime.o)
                                                  c:/program files (x86)/kpit/gnuarm-nonev16.01-eabi/arm-none-eabi/arm-none-eabi/bin/../lib/gcc/arm-none-eabi/5.2-GNUARM-NONE_v16.01/../../../../arm-none-eabi/lib/armv7-ar/thumb/fpu\libc.a(lib_a-lcltime_r.o)
__aeabi_ldiv0                                     c:/program files (x86)/kpit/gnuarm-nonev16.01-eabi/arm-none-eabi/arm-none-eabi/bin/../lib/gcc/arm-none-eabi/5.2-GNUARM-NONE_v16.01/armv7-ar/thumb/fpu\libgcc.a(_dvmd_tls.o)
                                                  c:/program files (x86)/kpit/gnuarm-nonev16.01-eabi/arm-none-eabi/arm-none-eabi/bin/../lib/gcc/arm-none-eabi/5.2-GNUARM-NONE_v16.01/armv7-ar/thumb/fpu\libgcc.a(_aeabi_uldivmod.o)
__aeabi_uidiv                                     c:/program files (x86)/kpit/gnuarm-nonev16.01-eabi/arm-none-eabi/arm-none-eabi/bin/../lib/gcc/arm-none-eabi/5.2-GNUARM-NONE_v16.01/armv7-ar/thumb/fpu\libgcc.a(_udivsi3.o)
                                                  c:/program files (x86)/kpit/gnuarm-nonev16.01-eabi/arm-none-eabi/arm-none-eabi/bin/../lib/gcc/arm-none-eabi/5.2-GNUARM-NONE_v16.01/../../../../arm-none-eabi/lib/armv7-ar/thumb/fpu\libc.a(lib_a-strtol.o)
                                                  c:/program files (x86)/kpit/gnuarm-nonev16.01-eabi/arm-none-eabi/arm-none-eabi/bin/../lib/gcc/arm-none-eabi/5.2-GNUARM-NONE_v16.01/../../../../arm-none-eabi/lib/armv7-ar/thumb/fpu\libc.a(lib_a-svfiscanf.o)
                                                  c:/program files (x86)/kpit/gnuarm-nonev16.01-eabi/arm-none-eabi/arm-none-eabi/bin/../lib/gcc/arm-none-eabi/5.2-GNUARM-NONE_v16.01/../../../../arm-none-eabi/lib/armv7-ar/thumb/fpu\libc.a(lib_a-strtoul.o)
                                                  c:/program files (x86)/kpit/gnuarm-nonev16.01-eabi/arm-none-eabi/arm-none-eabi/bin/../lib/gcc/arm-none-eabi/5.2-GNUARM-NONE_v16.01/../../../../arm-none-eabi/lib/armv7-ar/thumb/fpu\libc.a(lib_a-gmtime_r.o)
                                                  c:/program files (x86)/kpit/gnuarm-nonev16.01-eabi/arm-none-eabi/arm-none-eabi/bin/../lib/gcc/arm-none-eabi/5.2-GNUARM-NONE_v16.01/../../../../arm-none-eabi/lib/armv7-ar/thumb/fpu\libc.a(lib_a-dtoa.o)
                                                  .\libkernel.a(mempfix.o)
                                                  tcp_input.o
                                                  net_subr.o
                                                  spi_api.o
                                                  can_api.o
                                                  tSCIF.o
                                                  log_output.o
                                                  sample1.o
                                                  sample1n.o
__aeabi_uidivmod                                  c:/program files (x86)/kpit/gnuarm-nonev16.01-eabi/arm-none-eabi/arm-none-eabi/bin/../lib/gcc/arm-none-eabi/5.2-GNUARM-NONE_v16.01/armv7-ar/thumb/fpu\libgcc.a(_udivsi3.o)
                                                  c:/program files (x86)/kpit/gnuarm-nonev16.01-eabi/arm-none-eabi/arm-none-eabi/bin/../lib/gcc/arm-none-eabi/5.2-GNUARM-NONE_v16.01/../../../../arm-none-eabi/lib/armv7-ar/thumb/fpu\libc.a(lib_a-strtol.o)
                                                  c:/program files (x86)/kpit/gnuarm-nonev16.01-eabi/arm-none-eabi/arm-none-eabi/bin/../lib/gcc/arm-none-eabi/5.2-GNUARM-NONE_v16.01/../../../../arm-none-eabi/lib/armv7-ar/thumb/fpu\libc.a(lib_a-vfiprintf.o)
                                                  c:/program files (x86)/kpit/gnuarm-nonev16.01-eabi/arm-none-eabi/arm-none-eabi/bin/../lib/gcc/arm-none-eabi/5.2-GNUARM-NONE_v16.01/../../../../arm-none-eabi/lib/armv7-ar/thumb/fpu\libc.a(lib_a-strtoul.o)
                                                  c:/program files (x86)/kpit/gnuarm-nonev16.01-eabi/arm-none-eabi/arm-none-eabi/bin/../lib/gcc/arm-none-eabi/5.2-GNUARM-NONE_v16.01/../../../../arm-none-eabi/lib/armv7-ar/thumb/fpu\libc.a(lib_a-gmtime_r.o)
                                                  .\libkernel.a(mempfix.o)
                                                  net_subr.o
                                                  log_output.o
                                                  sample1n.o
__aeabi_uldivmod                                  c:/program files (x86)/kpit/gnuarm-nonev16.01-eabi/arm-none-eabi/arm-none-eabi/bin/../lib/gcc/arm-none-eabi/5.2-GNUARM-NONE_v16.01/armv7-ar/thumb/fpu\libgcc.a(_aeabi_uldivmod.o)
                                                  in_subr.o
                                                  pwmout_api.o
__any_on                                          c:/program files (x86)/kpit/gnuarm-nonev16.01-eabi/arm-none-eabi/arm-none-eabi/bin/../lib/gcc/arm-none-eabi/5.2-GNUARM-NONE_v16.01/../../../../arm-none-eabi/lib/armv7-ar/thumb/fpu\libc.a(lib_a-mprec.o)
__ascii_mbtowc                                    c:/program files (x86)/kpit/gnuarm-nonev16.01-eabi/arm-none-eabi/arm-none-eabi/bin/../lib/gcc/arm-none-eabi/5.2-GNUARM-NONE_v16.01/../../../../arm-none-eabi/lib/armv7-ar/thumb/fpu\libc.a(lib_a-mbtowc_r.o)
__ascii_wctomb                                    c:/program files (x86)/kpit/gnuarm-nonev16.01-eabi/arm-none-eabi/arm-none-eabi/bin/../lib/gcc/arm-none-eabi/5.2-GNUARM-NONE_v16.01/../../../../arm-none-eabi/lib/armv7-ar/thumb/fpu\libc.a(lib_a-wctomb_r.o)
__b2d                                             c:/program files (x86)/kpit/gnuarm-nonev16.01-eabi/arm-none-eabi/arm-none-eabi/bin/../lib/gcc/arm-none-eabi/5.2-GNUARM-NONE_v16.01/../../../../arm-none-eabi/lib/armv7-ar/thumb/fpu\libc.a(lib_a-mprec.o)
__call_exitprocs                                  c:/program files (x86)/kpit/gnuarm-nonev16.01-eabi/arm-none-eabi/arm-none-eabi/bin/../lib/gcc/arm-none-eabi/5.2-GNUARM-NONE_v16.01/../../../../arm-none-eabi/lib/armv7-ar/thumb/fpu\libc.a(lib_a-__call_atexit.o)
                                                  c:/program files (x86)/kpit/gnuarm-nonev16.01-eabi/arm-none-eabi/arm-none-eabi/bin/../lib/gcc/arm-none-eabi/5.2-GNUARM-NONE_v16.01/../../../../arm-none-eabi/lib/armv7-ar/thumb/fpu\libc.a(lib_a-exit.o)
__copy_table_end__                                startup_RZ1AH.o
__copy_table_start__                              startup_RZ1AH.o
__copybits                                        c:/program files (x86)/kpit/gnuarm-nonev16.01-eabi/arm-none-eabi/arm-none-eabi/bin/../lib/gcc/arm-none-eabi/5.2-GNUARM-NONE_v16.01/../../../../arm-none-eabi/lib/armv7-ar/thumb/fpu\libc.a(lib_a-mprec.o)
__ctype_ptr__                                     c:/program files (x86)/kpit/gnuarm-nonev16.01-eabi/arm-none-eabi/arm-none-eabi/bin/../lib/gcc/arm-none-eabi/5.2-GNUARM-NONE_v16.01/../../../../arm-none-eabi/lib/armv7-ar/thumb/fpu\libc.a(lib_a-ctype_.o)
                                                  c:/program files (x86)/kpit/gnuarm-nonev16.01-eabi/arm-none-eabi/arm-none-eabi/bin/../lib/gcc/arm-none-eabi/5.2-GNUARM-NONE_v16.01/../../../../arm-none-eabi/lib/armv7-ar/thumb/fpu\libc.a(lib_a-strtol.o)
                                                  c:/program files (x86)/kpit/gnuarm-nonev16.01-eabi/arm-none-eabi/arm-none-eabi/bin/../lib/gcc/arm-none-eabi/5.2-GNUARM-NONE_v16.01/../../../../arm-none-eabi/lib/armv7-ar/thumb/fpu\libc.a(lib_a-iswspace.o)
                                                  c:/program files (x86)/kpit/gnuarm-nonev16.01-eabi/arm-none-eabi/arm-none-eabi/bin/../lib/gcc/arm-none-eabi/5.2-GNUARM-NONE_v16.01/../../../../arm-none-eabi/lib/armv7-ar/thumb/fpu\libc.a(lib_a-svfiscanf.o)
                                                  c:/program files (x86)/kpit/gnuarm-nonev16.01-eabi/arm-none-eabi/arm-none-eabi/bin/../lib/gcc/arm-none-eabi/5.2-GNUARM-NONE_v16.01/../../../../arm-none-eabi/lib/armv7-ar/thumb/fpu\libc.a(lib_a-strtoul.o)
__d2b                                             c:/program files (x86)/kpit/gnuarm-nonev16.01-eabi/arm-none-eabi/arm-none-eabi/bin/../lib/gcc/arm-none-eabi/5.2-GNUARM-NONE_v16.01/../../../../arm-none-eabi/lib/armv7-ar/thumb/fpu\libc.a(lib_a-mprec.o)
                                                  c:/program files (x86)/kpit/gnuarm-nonev16.01-eabi/arm-none-eabi/arm-none-eabi/bin/../lib/gcc/arm-none-eabi/5.2-GNUARM-NONE_v16.01/../../../../arm-none-eabi/lib/armv7-ar/thumb/fpu\libc.a(lib_a-dtoa.o)
__divsi3                                          c:/program files (x86)/kpit/gnuarm-nonev16.01-eabi/arm-none-eabi/arm-none-eabi/bin/../lib/gcc/arm-none-eabi/5.2-GNUARM-NONE_v16.01/armv7-ar/thumb/fpu\libgcc.a(_divsi3.o)
__env_lock                                        c:/program files (x86)/kpit/gnuarm-nonev16.01-eabi/arm-none-eabi/arm-none-eabi/bin/../lib/gcc/arm-none-eabi/5.2-GNUARM-NONE_v16.01/../../../../arm-none-eabi/lib/armv7-ar/thumb/fpu\libc.a(lib_a-envlock.o)
                                                  c:/program files (x86)/kpit/gnuarm-nonev16.01-eabi/arm-none-eabi/arm-none-eabi/bin/../lib/gcc/arm-none-eabi/5.2-GNUARM-NONE_v16.01/../../../../arm-none-eabi/lib/armv7-ar/thumb/fpu\libc.a(lib_a-getenv_r.o)
__env_unlock                                      c:/program files (x86)/kpit/gnuarm-nonev16.01-eabi/arm-none-eabi/arm-none-eabi/bin/../lib/gcc/arm-none-eabi/5.2-GNUARM-NONE_v16.01/../../../../arm-none-eabi/lib/armv7-ar/thumb/fpu\libc.a(lib_a-envlock.o)
                                                  c:/program files (x86)/kpit/gnuarm-nonev16.01-eabi/arm-none-eabi/arm-none-eabi/bin/../lib/gcc/arm-none-eabi/5.2-GNUARM-NONE_v16.01/../../../../arm-none-eabi/lib/armv7-ar/thumb/fpu\libc.a(lib_a-getenv_r.o)
__errno                                           c:/program files (x86)/kpit/gnuarm-nonev16.01-eabi/arm-none-eabi/arm-none-eabi/bin/../lib/gcc/arm-none-eabi/5.2-GNUARM-NONE_v16.01/../../../../arm-none-eabi/lib/armv7-ar/thumb/fpu\libc.a(lib_a-errno.o)
                                                  c:/program files (x86)/kpit/gnuarm-nonev16.01-eabi/arm-none-eabi/arm-none-eabi/bin/../lib/gcc/arm-none-eabi/5.2-GNUARM-NONE_v16.01/../../../../arm-none-eabi/lib/armv7-ar/thumb/fpu\libc.a(lib_a-syscalls.o)
__fp_lock_all                                     c:/program files (x86)/kpit/gnuarm-nonev16.01-eabi/arm-none-eabi/arm-none-eabi/bin/../lib/gcc/arm-none-eabi/5.2-GNUARM-NONE_v16.01/../../../../arm-none-eabi/lib/armv7-ar/thumb/fpu\libc.a(lib_a-findfp.o)
__fp_unlock_all                                   c:/program files (x86)/kpit/gnuarm-nonev16.01-eabi/arm-none-eabi/arm-none-eabi/bin/../lib/gcc/arm-none-eabi/5.2-GNUARM-NONE_v16.01/../../../../arm-none-eabi/lib/armv7-ar/thumb/fpu\libc.a(lib_a-findfp.o)
__fpclassifyd                                     c:/program files (x86)/kpit/gnuarm-nonev16.01-eabi/arm-none-eabi/arm-none-eabi/bin/../lib/gcc/arm-none-eabi/5.2-GNUARM-NONE_v16.01/../../../../arm-none-eabi/lib/armv7-ar/thumb/fpu\libc.a(lib_a-s_fpclassify.o)
                                                  c:/program files (x86)/kpit/gnuarm-nonev16.01-eabi/arm-none-eabi/arm-none-eabi/bin/../lib/gcc/arm-none-eabi/5.2-GNUARM-NONE_v16.01/../../../../arm-none-eabi/lib/armv7-ar/thumb/fpu\libc.a(lib_a-vfprintf.o)
__fputwc                                          c:/program files (x86)/kpit/gnuarm-nonev16.01-eabi/arm-none-eabi/arm-none-eabi/bin/../lib/gcc/arm-none-eabi/5.2-GNUARM-NONE_v16.01/../../../../arm-none-eabi/lib/armv7-ar/thumb/fpu\libc.a(lib_a-fputwc.o)
__gettzinfo                                       c:/program files (x86)/kpit/gnuarm-nonev16.01-eabi/arm-none-eabi/arm-none-eabi/bin/../lib/gcc/arm-none-eabi/5.2-GNUARM-NONE_v16.01/../../../../arm-none-eabi/lib/armv7-ar/thumb/fpu\libc.a(lib_a-gettzinfo.o)
                                                  c:/program files (x86)/kpit/gnuarm-nonev16.01-eabi/arm-none-eabi/arm-none-eabi/bin/../lib/gcc/arm-none-eabi/5.2-GNUARM-NONE_v16.01/../../../../arm-none-eabi/lib/armv7-ar/thumb/fpu\libc.a(lib_a-tzset_r.o)
                                                  c:/program files (x86)/kpit/gnuarm-nonev16.01-eabi/arm-none-eabi/arm-none-eabi/bin/../lib/gcc/arm-none-eabi/5.2-GNUARM-NONE_v16.01/../../../../arm-none-eabi/lib/armv7-ar/thumb/fpu\libc.a(lib_a-tzcalc_limits.o)
                                                  c:/program files (x86)/kpit/gnuarm-nonev16.01-eabi/arm-none-eabi/arm-none-eabi/bin/../lib/gcc/arm-none-eabi/5.2-GNUARM-NONE_v16.01/../../../../arm-none-eabi/lib/armv7-ar/thumb/fpu\libc.a(lib_a-mktime.o)
                                                  c:/program files (x86)/kpit/gnuarm-nonev16.01-eabi/arm-none-eabi/arm-none-eabi/bin/../lib/gcc/arm-none-eabi/5.2-GNUARM-NONE_v16.01/../../../../arm-none-eabi/lib/armv7-ar/thumb/fpu\libc.a(lib_a-lcltime_r.o)
__hi0bits                                         c:/program files (x86)/kpit/gnuarm-nonev16.01-eabi/arm-none-eabi/arm-none-eabi/bin/../lib/gcc/arm-none-eabi/5.2-GNUARM-NONE_v16.01/../../../../arm-none-eabi/lib/armv7-ar/thumb/fpu\libc.a(lib_a-mprec.o)
                                                  c:/program files (x86)/kpit/gnuarm-nonev16.01-eabi/arm-none-eabi/arm-none-eabi/bin/../lib/gcc/arm-none-eabi/5.2-GNUARM-NONE_v16.01/../../../../arm-none-eabi/lib/armv7-ar/thumb/fpu\libc.a(lib_a-dtoa.o)
__i2b                                             c:/program files (x86)/kpit/gnuarm-nonev16.01-eabi/arm-none-eabi/arm-none-eabi/bin/../lib/gcc/arm-none-eabi/5.2-GNUARM-NONE_v16.01/../../../../arm-none-eabi/lib/armv7-ar/thumb/fpu\libc.a(lib_a-mprec.o)
                                                  c:/program files (x86)/kpit/gnuarm-nonev16.01-eabi/arm-none-eabi/arm-none-eabi/bin/../lib/gcc/arm-none-eabi/5.2-GNUARM-NONE_v16.01/../../../../arm-none-eabi/lib/armv7-ar/thumb/fpu\libc.a(lib_a-dtoa.o)
__isr_vector                                      startup_RZ1AH.o
__lo0bits                                         c:/program files (x86)/kpit/gnuarm-nonev16.01-eabi/arm-none-eabi/arm-none-eabi/bin/../lib/gcc/arm-none-eabi/5.2-GNUARM-NONE_v16.01/../../../../arm-none-eabi/lib/armv7-ar/thumb/fpu\libc.a(lib_a-mprec.o)
__locale_charset                                  c:/program files (x86)/kpit/gnuarm-nonev16.01-eabi/arm-none-eabi/arm-none-eabi/bin/../lib/gcc/arm-none-eabi/5.2-GNUARM-NONE_v16.01/../../../../arm-none-eabi/lib/armv7-ar/thumb/fpu\libc.a(lib_a-locale.o)
                                                  c:/program files (x86)/kpit/gnuarm-nonev16.01-eabi/arm-none-eabi/arm-none-eabi/bin/../lib/gcc/arm-none-eabi/5.2-GNUARM-NONE_v16.01/../../../../arm-none-eabi/lib/armv7-ar/thumb/fpu\libc.a(lib_a-wctomb_r.o)
                                                  c:/program files (x86)/kpit/gnuarm-nonev16.01-eabi/arm-none-eabi/arm-none-eabi/bin/../lib/gcc/arm-none-eabi/5.2-GNUARM-NONE_v16.01/../../../../arm-none-eabi/lib/armv7-ar/thumb/fpu\libc.a(lib_a-wcrtomb.o)
                                                  c:/program files (x86)/kpit/gnuarm-nonev16.01-eabi/arm-none-eabi/arm-none-eabi/bin/../lib/gcc/arm-none-eabi/5.2-GNUARM-NONE_v16.01/../../../../arm-none-eabi/lib/armv7-ar/thumb/fpu\libc.a(lib_a-mbtowc_r.o)
                                                  c:/program files (x86)/kpit/gnuarm-nonev16.01-eabi/arm-none-eabi/arm-none-eabi/bin/../lib/gcc/arm-none-eabi/5.2-GNUARM-NONE_v16.01/../../../../arm-none-eabi/lib/armv7-ar/thumb/fpu\libc.a(lib_a-mbrtowc.o)
__locale_cjk_lang                                 c:/program files (x86)/kpit/gnuarm-nonev16.01-eabi/arm-none-eabi/arm-none-eabi/bin/../lib/gcc/arm-none-eabi/5.2-GNUARM-NONE_v16.01/../../../../arm-none-eabi/lib/armv7-ar/thumb/fpu\libc.a(lib_a-locale.o)
__locale_mb_cur_max                               c:/program files (x86)/kpit/gnuarm-nonev16.01-eabi/arm-none-eabi/arm-none-eabi/bin/../lib/gcc/arm-none-eabi/5.2-GNUARM-NONE_v16.01/../../../../arm-none-eabi/lib/armv7-ar/thumb/fpu\libc.a(lib_a-locale.o)
                                                  c:/program files (x86)/kpit/gnuarm-nonev16.01-eabi/arm-none-eabi/arm-none-eabi/bin/../lib/gcc/arm-none-eabi/5.2-GNUARM-NONE_v16.01/../../../../arm-none-eabi/lib/armv7-ar/thumb/fpu\libc.a(lib_a-fputwc.o)
                                                  c:/program files (x86)/kpit/gnuarm-nonev16.01-eabi/arm-none-eabi/arm-none-eabi/bin/../lib/gcc/arm-none-eabi/5.2-GNUARM-NONE_v16.01/../../../../arm-none-eabi/lib/armv7-ar/thumb/fpu\libc.a(lib_a-svfiscanf.o)
__locale_msgcharset                               c:/program files (x86)/kpit/gnuarm-nonev16.01-eabi/arm-none-eabi/arm-none-eabi/bin/../lib/gcc/arm-none-eabi/5.2-GNUARM-NONE_v16.01/../../../../arm-none-eabi/lib/armv7-ar/thumb/fpu\libc.a(lib_a-locale.o)
__lshift                                          c:/program files (x86)/kpit/gnuarm-nonev16.01-eabi/arm-none-eabi/arm-none-eabi/bin/../lib/gcc/arm-none-eabi/5.2-GNUARM-NONE_v16.01/../../../../arm-none-eabi/lib/armv7-ar/thumb/fpu\libc.a(lib_a-mprec.o)
                                                  c:/program files (x86)/kpit/gnuarm-nonev16.01-eabi/arm-none-eabi/arm-none-eabi/bin/../lib/gcc/arm-none-eabi/5.2-GNUARM-NONE_v16.01/../../../../arm-none-eabi/lib/armv7-ar/thumb/fpu\libc.a(lib_a-dtoa.o)
__malloc_av_                                      c:/program files (x86)/kpit/gnuarm-nonev16.01-eabi/arm-none-eabi/arm-none-eabi/bin/../lib/gcc/arm-none-eabi/5.2-GNUARM-NONE_v16.01/../../../../arm-none-eabi/lib/armv7-ar/thumb/fpu\libc.a(lib_a-mallocr.o)
                                                  c:/program files (x86)/kpit/gnuarm-nonev16.01-eabi/arm-none-eabi/arm-none-eabi/bin/../lib/gcc/arm-none-eabi/5.2-GNUARM-NONE_v16.01/../../../../arm-none-eabi/lib/armv7-ar/thumb/fpu\libc.a(lib_a-reallocr.o)
                                                  c:/program files (x86)/kpit/gnuarm-nonev16.01-eabi/arm-none-eabi/arm-none-eabi/bin/../lib/gcc/arm-none-eabi/5.2-GNUARM-NONE_v16.01/../../../../arm-none-eabi/lib/armv7-ar/thumb/fpu\libc.a(lib_a-freer.o)
__malloc_current_mallinfo                         c:/program files (x86)/kpit/gnuarm-nonev16.01-eabi/arm-none-eabi/arm-none-eabi/bin/../lib/gcc/arm-none-eabi/5.2-GNUARM-NONE_v16.01/../../../../arm-none-eabi/lib/armv7-ar/thumb/fpu\libc.a(lib_a-mallocr.o)
                                                  c:/program files (x86)/kpit/gnuarm-nonev16.01-eabi/arm-none-eabi/arm-none-eabi/bin/../lib/gcc/arm-none-eabi/5.2-GNUARM-NONE_v16.01/../../../../arm-none-eabi/lib/armv7-ar/thumb/fpu\libc.a(lib_a-freer.o)
__malloc_lock                                     c:/program files (x86)/kpit/gnuarm-nonev16.01-eabi/arm-none-eabi/arm-none-eabi/bin/../lib/gcc/arm-none-eabi/5.2-GNUARM-NONE_v16.01/../../../../arm-none-eabi/lib/armv7-ar/thumb/fpu\libc.a(lib_a-mlock.o)
                                                  c:/program files (x86)/kpit/gnuarm-nonev16.01-eabi/arm-none-eabi/arm-none-eabi/bin/../lib/gcc/arm-none-eabi/5.2-GNUARM-NONE_v16.01/../../../../arm-none-eabi/lib/armv7-ar/thumb/fpu\libc.a(lib_a-reallocr.o)
                                                  c:/program files (x86)/kpit/gnuarm-nonev16.01-eabi/arm-none-eabi/arm-none-eabi/bin/../lib/gcc/arm-none-eabi/5.2-GNUARM-NONE_v16.01/../../../../arm-none-eabi/lib/armv7-ar/thumb/fpu\libc.a(lib_a-mallocr.o)
                                                  c:/program files (x86)/kpit/gnuarm-nonev16.01-eabi/arm-none-eabi/arm-none-eabi/bin/../lib/gcc/arm-none-eabi/5.2-GNUARM-NONE_v16.01/../../../../arm-none-eabi/lib/armv7-ar/thumb/fpu\libc.a(lib_a-freer.o)
__malloc_max_sbrked_mem                           c:/program files (x86)/kpit/gnuarm-nonev16.01-eabi/arm-none-eabi/arm-none-eabi/bin/../lib/gcc/arm-none-eabi/5.2-GNUARM-NONE_v16.01/../../../../arm-none-eabi/lib/armv7-ar/thumb/fpu\libc.a(lib_a-mallocr.o)
__malloc_max_total_mem                            c:/program files (x86)/kpit/gnuarm-nonev16.01-eabi/arm-none-eabi/arm-none-eabi/bin/../lib/gcc/arm-none-eabi/5.2-GNUARM-NONE_v16.01/../../../../arm-none-eabi/lib/armv7-ar/thumb/fpu\libc.a(lib_a-mallocr.o)
__malloc_sbrk_base                                c:/program files (x86)/kpit/gnuarm-nonev16.01-eabi/arm-none-eabi/arm-none-eabi/bin/../lib/gcc/arm-none-eabi/5.2-GNUARM-NONE_v16.01/../../../../arm-none-eabi/lib/armv7-ar/thumb/fpu\libc.a(lib_a-mallocr.o)
                                                  c:/program files (x86)/kpit/gnuarm-nonev16.01-eabi/arm-none-eabi/arm-none-eabi/bin/../lib/gcc/arm-none-eabi/5.2-GNUARM-NONE_v16.01/../../../../arm-none-eabi/lib/armv7-ar/thumb/fpu\libc.a(lib_a-freer.o)
__malloc_top_pad                                  c:/program files (x86)/kpit/gnuarm-nonev16.01-eabi/arm-none-eabi/arm-none-eabi/bin/../lib/gcc/arm-none-eabi/5.2-GNUARM-NONE_v16.01/../../../../arm-none-eabi/lib/armv7-ar/thumb/fpu\libc.a(lib_a-mallocr.o)
                                                  c:/program files (x86)/kpit/gnuarm-nonev16.01-eabi/arm-none-eabi/arm-none-eabi/bin/../lib/gcc/arm-none-eabi/5.2-GNUARM-NONE_v16.01/../../../../arm-none-eabi/lib/armv7-ar/thumb/fpu\libc.a(lib_a-freer.o)
__malloc_trim_threshold                           c:/program files (x86)/kpit/gnuarm-nonev16.01-eabi/arm-none-eabi/arm-none-eabi/bin/../lib/gcc/arm-none-eabi/5.2-GNUARM-NONE_v16.01/../../../../arm-none-eabi/lib/armv7-ar/thumb/fpu\libc.a(lib_a-mallocr.o)
                                                  c:/program files (x86)/kpit/gnuarm-nonev16.01-eabi/arm-none-eabi/arm-none-eabi/bin/../lib/gcc/arm-none-eabi/5.2-GNUARM-NONE_v16.01/../../../../arm-none-eabi/lib/armv7-ar/thumb/fpu\libc.a(lib_a-freer.o)
__malloc_unlock                                   c:/program files (x86)/kpit/gnuarm-nonev16.01-eabi/arm-none-eabi/arm-none-eabi/bin/../lib/gcc/arm-none-eabi/5.2-GNUARM-NONE_v16.01/../../../../arm-none-eabi/lib/armv7-ar/thumb/fpu\libc.a(lib_a-mlock.o)
                                                  c:/program files (x86)/kpit/gnuarm-nonev16.01-eabi/arm-none-eabi/arm-none-eabi/bin/../lib/gcc/arm-none-eabi/5.2-GNUARM-NONE_v16.01/../../../../arm-none-eabi/lib/armv7-ar/thumb/fpu\libc.a(lib_a-reallocr.o)
                                                  c:/program files (x86)/kpit/gnuarm-nonev16.01-eabi/arm-none-eabi/arm-none-eabi/bin/../lib/gcc/arm-none-eabi/5.2-GNUARM-NONE_v16.01/../../../../arm-none-eabi/lib/armv7-ar/thumb/fpu\libc.a(lib_a-mallocr.o)
                                                  c:/program files (x86)/kpit/gnuarm-nonev16.01-eabi/arm-none-eabi/arm-none-eabi/bin/../lib/gcc/arm-none-eabi/5.2-GNUARM-NONE_v16.01/../../../../arm-none-eabi/lib/armv7-ar/thumb/fpu\libc.a(lib_a-freer.o)
__mb_cur_max                                      c:/program files (x86)/kpit/gnuarm-nonev16.01-eabi/arm-none-eabi/arm-none-eabi/bin/../lib/gcc/arm-none-eabi/5.2-GNUARM-NONE_v16.01/../../../../arm-none-eabi/lib/armv7-ar/thumb/fpu\libc.a(lib_a-locale.o)
__mbtowc                                          c:/program files (x86)/kpit/gnuarm-nonev16.01-eabi/arm-none-eabi/arm-none-eabi/bin/../lib/gcc/arm-none-eabi/5.2-GNUARM-NONE_v16.01/../../../../arm-none-eabi/lib/armv7-ar/thumb/fpu\libc.a(lib_a-mbtowc_r.o)
                                                  c:/program files (x86)/kpit/gnuarm-nonev16.01-eabi/arm-none-eabi/arm-none-eabi/bin/../lib/gcc/arm-none-eabi/5.2-GNUARM-NONE_v16.01/../../../../arm-none-eabi/lib/armv7-ar/thumb/fpu\libc.a(lib_a-mbrtowc.o)
__mcmp                                            c:/program files (x86)/kpit/gnuarm-nonev16.01-eabi/arm-none-eabi/arm-none-eabi/bin/../lib/gcc/arm-none-eabi/5.2-GNUARM-NONE_v16.01/../../../../arm-none-eabi/lib/armv7-ar/thumb/fpu\libc.a(lib_a-mprec.o)
                                                  c:/program files (x86)/kpit/gnuarm-nonev16.01-eabi/arm-none-eabi/arm-none-eabi/bin/../lib/gcc/arm-none-eabi/5.2-GNUARM-NONE_v16.01/../../../../arm-none-eabi/lib/armv7-ar/thumb/fpu\libc.a(lib_a-dtoa.o)
__mdiff                                           c:/program files (x86)/kpit/gnuarm-nonev16.01-eabi/arm-none-eabi/arm-none-eabi/bin/../lib/gcc/arm-none-eabi/5.2-GNUARM-NONE_v16.01/../../../../arm-none-eabi/lib/armv7-ar/thumb/fpu\libc.a(lib_a-mprec.o)
                                                  c:/program files (x86)/kpit/gnuarm-nonev16.01-eabi/arm-none-eabi/arm-none-eabi/bin/../lib/gcc/arm-none-eabi/5.2-GNUARM-NONE_v16.01/../../../../arm-none-eabi/lib/armv7-ar/thumb/fpu\libc.a(lib_a-dtoa.o)
__mlocale_changed                                 c:/program files (x86)/kpit/gnuarm-nonev16.01-eabi/arm-none-eabi/arm-none-eabi/bin/../lib/gcc/arm-none-eabi/5.2-GNUARM-NONE_v16.01/../../../../arm-none-eabi/lib/armv7-ar/thumb/fpu\libc.a(lib_a-locale.o)
__month_lengths                                   c:/program files (x86)/kpit/gnuarm-nonev16.01-eabi/arm-none-eabi/arm-none-eabi/bin/../lib/gcc/arm-none-eabi/5.2-GNUARM-NONE_v16.01/../../../../arm-none-eabi/lib/armv7-ar/thumb/fpu\libc.a(lib_a-month_lengths.o)
                                                  c:/program files (x86)/kpit/gnuarm-nonev16.01-eabi/arm-none-eabi/arm-none-eabi/bin/../lib/gcc/arm-none-eabi/5.2-GNUARM-NONE_v16.01/../../../../arm-none-eabi/lib/armv7-ar/thumb/fpu\libc.a(lib_a-tzcalc_limits.o)
                                                  c:/program files (x86)/kpit/gnuarm-nonev16.01-eabi/arm-none-eabi/arm-none-eabi/bin/../lib/gcc/arm-none-eabi/5.2-GNUARM-NONE_v16.01/../../../../arm-none-eabi/lib/armv7-ar/thumb/fpu\libc.a(lib_a-lcltime_r.o)
__mprec_bigtens                                   c:/program files (x86)/kpit/gnuarm-nonev16.01-eabi/arm-none-eabi/arm-none-eabi/bin/../lib/gcc/arm-none-eabi/5.2-GNUARM-NONE_v16.01/../../../../arm-none-eabi/lib/armv7-ar/thumb/fpu\libc.a(lib_a-mprec.o)
                                                  c:/program files (x86)/kpit/gnuarm-nonev16.01-eabi/arm-none-eabi/arm-none-eabi/bin/../lib/gcc/arm-none-eabi/5.2-GNUARM-NONE_v16.01/../../../../arm-none-eabi/lib/armv7-ar/thumb/fpu\libc.a(lib_a-dtoa.o)
__mprec_tens                                      c:/program files (x86)/kpit/gnuarm-nonev16.01-eabi/arm-none-eabi/arm-none-eabi/bin/../lib/gcc/arm-none-eabi/5.2-GNUARM-NONE_v16.01/../../../../arm-none-eabi/lib/armv7-ar/thumb/fpu\libc.a(lib_a-mprec.o)
                                                  c:/program files (x86)/kpit/gnuarm-nonev16.01-eabi/arm-none-eabi/arm-none-eabi/bin/../lib/gcc/arm-none-eabi/5.2-GNUARM-NONE_v16.01/../../../../arm-none-eabi/lib/armv7-ar/thumb/fpu\libc.a(lib_a-dtoa.o)
__mprec_tinytens                                  c:/program files (x86)/kpit/gnuarm-nonev16.01-eabi/arm-none-eabi/arm-none-eabi/bin/../lib/gcc/arm-none-eabi/5.2-GNUARM-NONE_v16.01/../../../../arm-none-eabi/lib/armv7-ar/thumb/fpu\libc.a(lib_a-mprec.o)
__multadd                                         c:/program files (x86)/kpit/gnuarm-nonev16.01-eabi/arm-none-eabi/arm-none-eabi/bin/../lib/gcc/arm-none-eabi/5.2-GNUARM-NONE_v16.01/../../../../arm-none-eabi/lib/armv7-ar/thumb/fpu\libc.a(lib_a-mprec.o)
                                                  c:/program files (x86)/kpit/gnuarm-nonev16.01-eabi/arm-none-eabi/arm-none-eabi/bin/../lib/gcc/arm-none-eabi/5.2-GNUARM-NONE_v16.01/../../../../arm-none-eabi/lib/armv7-ar/thumb/fpu\libc.a(lib_a-dtoa.o)
__multiply                                        c:/program files (x86)/kpit/gnuarm-nonev16.01-eabi/arm-none-eabi/arm-none-eabi/bin/../lib/gcc/arm-none-eabi/5.2-GNUARM-NONE_v16.01/../../../../arm-none-eabi/lib/armv7-ar/thumb/fpu\libc.a(lib_a-mprec.o)
                                                  c:/program files (x86)/kpit/gnuarm-nonev16.01-eabi/arm-none-eabi/arm-none-eabi/bin/../lib/gcc/arm-none-eabi/5.2-GNUARM-NONE_v16.01/../../../../arm-none-eabi/lib/armv7-ar/thumb/fpu\libc.a(lib_a-dtoa.o)
__nlocale_changed                                 c:/program files (x86)/kpit/gnuarm-nonev16.01-eabi/arm-none-eabi/arm-none-eabi/bin/../lib/gcc/arm-none-eabi/5.2-GNUARM-NONE_v16.01/../../../../arm-none-eabi/lib/armv7-ar/thumb/fpu\libc.a(lib_a-locale.o)
__pow5mult                                        c:/program files (x86)/kpit/gnuarm-nonev16.01-eabi/arm-none-eabi/arm-none-eabi/bin/../lib/gcc/arm-none-eabi/5.2-GNUARM-NONE_v16.01/../../../../arm-none-eabi/lib/armv7-ar/thumb/fpu\libc.a(lib_a-mprec.o)
                                                  c:/program files (x86)/kpit/gnuarm-nonev16.01-eabi/arm-none-eabi/arm-none-eabi/bin/../lib/gcc/arm-none-eabi/5.2-GNUARM-NONE_v16.01/../../../../arm-none-eabi/lib/armv7-ar/thumb/fpu\libc.a(lib_a-dtoa.o)
__ratio                                           c:/program files (x86)/kpit/gnuarm-nonev16.01-eabi/arm-none-eabi/arm-none-eabi/bin/../lib/gcc/arm-none-eabi/5.2-GNUARM-NONE_v16.01/../../../../arm-none-eabi/lib/armv7-ar/thumb/fpu\libc.a(lib_a-mprec.o)
__s2b                                             c:/program files (x86)/kpit/gnuarm-nonev16.01-eabi/arm-none-eabi/arm-none-eabi/bin/../lib/gcc/arm-none-eabi/5.2-GNUARM-NONE_v16.01/../../../../arm-none-eabi/lib/armv7-ar/thumb/fpu\libc.a(lib_a-mprec.o)
__sccl                                            c:/program files (x86)/kpit/gnuarm-nonev16.01-eabi/arm-none-eabi/arm-none-eabi/bin/../lib/gcc/arm-none-eabi/5.2-GNUARM-NONE_v16.01/../../../../arm-none-eabi/lib/armv7-ar/thumb/fpu\libc.a(lib_a-sccl.o)
                                                  c:/program files (x86)/kpit/gnuarm-nonev16.01-eabi/arm-none-eabi/arm-none-eabi/bin/../lib/gcc/arm-none-eabi/5.2-GNUARM-NONE_v16.01/../../../../arm-none-eabi/lib/armv7-ar/thumb/fpu\libc.a(lib_a-svfiscanf.o)
__sclose                                          c:/program files (x86)/kpit/gnuarm-nonev16.01-eabi/arm-none-eabi/arm-none-eabi/bin/../lib/gcc/arm-none-eabi/5.2-GNUARM-NONE_v16.01/../../../../arm-none-eabi/lib/armv7-ar/thumb/fpu\libc.a(lib_a-stdio.o)
                                                  c:/program files (x86)/kpit/gnuarm-nonev16.01-eabi/arm-none-eabi/arm-none-eabi/bin/../lib/gcc/arm-none-eabi/5.2-GNUARM-NONE_v16.01/../../../../arm-none-eabi/lib/armv7-ar/thumb/fpu\libc.a(lib_a-findfp.o)
__seofread                                        c:/program files (x86)/kpit/gnuarm-nonev16.01-eabi/arm-none-eabi/arm-none-eabi/bin/../lib/gcc/arm-none-eabi/5.2-GNUARM-NONE_v16.01/../../../../arm-none-eabi/lib/armv7-ar/thumb/fpu\libc.a(lib_a-stdio.o)
                                                  c:/program files (x86)/kpit/gnuarm-nonev16.01-eabi/arm-none-eabi/arm-none-eabi/bin/../lib/gcc/arm-none-eabi/5.2-GNUARM-NONE_v16.01/../../../../arm-none-eabi/lib/armv7-ar/thumb/fpu\libc.a(lib_a-siscanf.o)
__sflush_r                                        c:/program files (x86)/kpit/gnuarm-nonev16.01-eabi/arm-none-eabi/arm-none-eabi/bin/../lib/gcc/arm-none-eabi/5.2-GNUARM-NONE_v16.01/../../../../arm-none-eabi/lib/armv7-ar/thumb/fpu\libc.a(lib_a-fflush.o)
                                                  c:/program files (x86)/kpit/gnuarm-nonev16.01-eabi/arm-none-eabi/arm-none-eabi/bin/../lib/gcc/arm-none-eabi/5.2-GNUARM-NONE_v16.01/../../../../arm-none-eabi/lib/armv7-ar/thumb/fpu\libc.a(lib_a-fclose.o)
__sfmoreglue                                      c:/program files (x86)/kpit/gnuarm-nonev16.01-eabi/arm-none-eabi/arm-none-eabi/bin/../lib/gcc/arm-none-eabi/5.2-GNUARM-NONE_v16.01/../../../../arm-none-eabi/lib/armv7-ar/thumb/fpu\libc.a(lib_a-findfp.o)
__sfp                                             c:/program files (x86)/kpit/gnuarm-nonev16.01-eabi/arm-none-eabi/arm-none-eabi/bin/../lib/gcc/arm-none-eabi/5.2-GNUARM-NONE_v16.01/../../../../arm-none-eabi/lib/armv7-ar/thumb/fpu\libc.a(lib_a-findfp.o)
__sfp_lock_acquire                                c:/program files (x86)/kpit/gnuarm-nonev16.01-eabi/arm-none-eabi/arm-none-eabi/bin/../lib/gcc/arm-none-eabi/5.2-GNUARM-NONE_v16.01/../../../../arm-none-eabi/lib/armv7-ar/thumb/fpu\libc.a(lib_a-findfp.o)
                                                  c:/program files (x86)/kpit/gnuarm-nonev16.01-eabi/arm-none-eabi/arm-none-eabi/bin/../lib/gcc/arm-none-eabi/5.2-GNUARM-NONE_v16.01/../../../../arm-none-eabi/lib/armv7-ar/thumb/fpu\libc.a(lib_a-fclose.o)
__sfp_lock_release                                c:/program files (x86)/kpit/gnuarm-nonev16.01-eabi/arm-none-eabi/arm-none-eabi/bin/../lib/gcc/arm-none-eabi/5.2-GNUARM-NONE_v16.01/../../../../arm-none-eabi/lib/armv7-ar/thumb/fpu\libc.a(lib_a-findfp.o)
                                                  c:/program files (x86)/kpit/gnuarm-nonev16.01-eabi/arm-none-eabi/arm-none-eabi/bin/../lib/gcc/arm-none-eabi/5.2-GNUARM-NONE_v16.01/../../../../arm-none-eabi/lib/armv7-ar/thumb/fpu\libc.a(lib_a-fclose.o)
__sfvwrite_r                                      c:/program files (x86)/kpit/gnuarm-nonev16.01-eabi/arm-none-eabi/arm-none-eabi/bin/../lib/gcc/arm-none-eabi/5.2-GNUARM-NONE_v16.01/../../../../arm-none-eabi/lib/armv7-ar/thumb/fpu\libc.a(lib_a-fvwrite.o)
                                                  c:/program files (x86)/kpit/gnuarm-nonev16.01-eabi/arm-none-eabi/arm-none-eabi/bin/../lib/gcc/arm-none-eabi/5.2-GNUARM-NONE_v16.01/../../../../arm-none-eabi/lib/armv7-ar/thumb/fpu\libc.a(lib_a-vfiprintf.o)
__sinit                                           c:/program files (x86)/kpit/gnuarm-nonev16.01-eabi/arm-none-eabi/arm-none-eabi/bin/../lib/gcc/arm-none-eabi/5.2-GNUARM-NONE_v16.01/../../../../arm-none-eabi/lib/armv7-ar/thumb/fpu\libc.a(lib_a-findfp.o)
                                                  c:/program files (x86)/kpit/gnuarm-nonev16.01-eabi/arm-none-eabi/arm-none-eabi/bin/../lib/gcc/arm-none-eabi/5.2-GNUARM-NONE_v16.01/../../../../arm-none-eabi/lib/armv7-ar/thumb/fpu\libc.a(lib_a-wbuf.o)
                                                  c:/program files (x86)/kpit/gnuarm-nonev16.01-eabi/arm-none-eabi/arm-none-eabi/bin/../lib/gcc/arm-none-eabi/5.2-GNUARM-NONE_v16.01/../../../../arm-none-eabi/lib/armv7-ar/thumb/fpu\libc.a(lib_a-fputwc.o)
                                                  c:/program files (x86)/kpit/gnuarm-nonev16.01-eabi/arm-none-eabi/arm-none-eabi/bin/../lib/gcc/arm-none-eabi/5.2-GNUARM-NONE_v16.01/../../../../arm-none-eabi/lib/armv7-ar/thumb/fpu\libc.a(lib_a-fclose.o)
                                                  c:/program files (x86)/kpit/gnuarm-nonev16.01-eabi/arm-none-eabi/arm-none-eabi/bin/../lib/gcc/arm-none-eabi/5.2-GNUARM-NONE_v16.01/../../../../arm-none-eabi/lib/armv7-ar/thumb/fpu\libc.a(lib_a-vfiprintf.o)
                                                  c:/program files (x86)/kpit/gnuarm-nonev16.01-eabi/arm-none-eabi/arm-none-eabi/bin/../lib/gcc/arm-none-eabi/5.2-GNUARM-NONE_v16.01/../../../../arm-none-eabi/lib/armv7-ar/thumb/fpu\libc.a(lib_a-ungetc.o)
                                                  c:/program files (x86)/kpit/gnuarm-nonev16.01-eabi/arm-none-eabi/arm-none-eabi/bin/../lib/gcc/arm-none-eabi/5.2-GNUARM-NONE_v16.01/../../../../arm-none-eabi/lib/armv7-ar/thumb/fpu\libc.a(lib_a-fflush.o)
                                                  c:/program files (x86)/kpit/gnuarm-nonev16.01-eabi/arm-none-eabi/arm-none-eabi/bin/../lib/gcc/arm-none-eabi/5.2-GNUARM-NONE_v16.01/../../../../arm-none-eabi/lib/armv7-ar/thumb/fpu\libc.a(lib_a-wsetup.o)
                                                  c:/program files (x86)/kpit/gnuarm-nonev16.01-eabi/arm-none-eabi/arm-none-eabi/bin/../lib/gcc/arm-none-eabi/5.2-GNUARM-NONE_v16.01/../../../../arm-none-eabi/lib/armv7-ar/thumb/fpu\libc.a(lib_a-vfprintf.o)
                                                  c:/program files (x86)/kpit/gnuarm-nonev16.01-eabi/arm-none-eabi/arm-none-eabi/bin/../lib/gcc/arm-none-eabi/5.2-GNUARM-NONE_v16.01/../../../../arm-none-eabi/lib/armv7-ar/thumb/fpu\libc.a(lib_a-syscalls.o)
__sinit_lock_acquire                              c:/program files (x86)/kpit/gnuarm-nonev16.01-eabi/arm-none-eabi/arm-none-eabi/bin/../lib/gcc/arm-none-eabi/5.2-GNUARM-NONE_v16.01/../../../../arm-none-eabi/lib/armv7-ar/thumb/fpu\libc.a(lib_a-findfp.o)
__sinit_lock_release                              c:/program files (x86)/kpit/gnuarm-nonev16.01-eabi/arm-none-eabi/arm-none-eabi/bin/../lib/gcc/arm-none-eabi/5.2-GNUARM-NONE_v16.01/../../../../arm-none-eabi/lib/armv7-ar/thumb/fpu\libc.a(lib_a-findfp.o)
__smakebuf_r                                      c:/program files (x86)/kpit/gnuarm-nonev16.01-eabi/arm-none-eabi/arm-none-eabi/bin/../lib/gcc/arm-none-eabi/5.2-GNUARM-NONE_v16.01/../../../../arm-none-eabi/lib/armv7-ar/thumb/fpu\libc.a(lib_a-makebuf.o)
                                                  c:/program files (x86)/kpit/gnuarm-nonev16.01-eabi/arm-none-eabi/arm-none-eabi/bin/../lib/gcc/arm-none-eabi/5.2-GNUARM-NONE_v16.01/../../../../arm-none-eabi/lib/armv7-ar/thumb/fpu\libc.a(lib_a-wsetup.o)
__sprint_r                                        c:/program files (x86)/kpit/gnuarm-nonev16.01-eabi/arm-none-eabi/arm-none-eabi/bin/../lib/gcc/arm-none-eabi/5.2-GNUARM-NONE_v16.01/../../../../arm-none-eabi/lib/armv7-ar/thumb/fpu\libc.a(lib_a-vfiprintf.o)
                                                  c:/program files (x86)/kpit/gnuarm-nonev16.01-eabi/arm-none-eabi/arm-none-eabi/bin/../lib/gcc/arm-none-eabi/5.2-GNUARM-NONE_v16.01/../../../../arm-none-eabi/lib/armv7-ar/thumb/fpu\libc.a(lib_a-vfprintf.o)
__sread                                           c:/program files (x86)/kpit/gnuarm-nonev16.01-eabi/arm-none-eabi/arm-none-eabi/bin/../lib/gcc/arm-none-eabi/5.2-GNUARM-NONE_v16.01/../../../../arm-none-eabi/lib/armv7-ar/thumb/fpu\libc.a(lib_a-stdio.o)
                                                  c:/program files (x86)/kpit/gnuarm-nonev16.01-eabi/arm-none-eabi/arm-none-eabi/bin/../lib/gcc/arm-none-eabi/5.2-GNUARM-NONE_v16.01/../../../../arm-none-eabi/lib/armv7-ar/thumb/fpu\libc.a(lib_a-findfp.o)
__sseek                                           c:/program files (x86)/kpit/gnuarm-nonev16.01-eabi/arm-none-eabi/arm-none-eabi/bin/../lib/gcc/arm-none-eabi/5.2-GNUARM-NONE_v16.01/../../../../arm-none-eabi/lib/armv7-ar/thumb/fpu\libc.a(lib_a-stdio.o)
                                                  c:/program files (x86)/kpit/gnuarm-nonev16.01-eabi/arm-none-eabi/arm-none-eabi/bin/../lib/gcc/arm-none-eabi/5.2-GNUARM-NONE_v16.01/../../../../arm-none-eabi/lib/armv7-ar/thumb/fpu\libc.a(lib_a-makebuf.o)
                                                  c:/program files (x86)/kpit/gnuarm-nonev16.01-eabi/arm-none-eabi/arm-none-eabi/bin/../lib/gcc/arm-none-eabi/5.2-GNUARM-NONE_v16.01/../../../../arm-none-eabi/lib/armv7-ar/thumb/fpu\libc.a(lib_a-findfp.o)
__ssrefill_r                                      c:/program files (x86)/kpit/gnuarm-nonev16.01-eabi/arm-none-eabi/arm-none-eabi/bin/../lib/gcc/arm-none-eabi/5.2-GNUARM-NONE_v16.01/../../../../arm-none-eabi/lib/armv7-ar/thumb/fpu\libc.a(lib_a-svfiscanf.o)
__ssvfiscanf_r                                    c:/program files (x86)/kpit/gnuarm-nonev16.01-eabi/arm-none-eabi/arm-none-eabi/bin/../lib/gcc/arm-none-eabi/5.2-GNUARM-NONE_v16.01/../../../../arm-none-eabi/lib/armv7-ar/thumb/fpu\libc.a(lib_a-svfiscanf.o)
                                                  c:/program files (x86)/kpit/gnuarm-nonev16.01-eabi/arm-none-eabi/arm-none-eabi/bin/../lib/gcc/arm-none-eabi/5.2-GNUARM-NONE_v16.01/../../../../arm-none-eabi/lib/armv7-ar/thumb/fpu\libc.a(lib_a-siscanf.o)
__submore                                         c:/program files (x86)/kpit/gnuarm-nonev16.01-eabi/arm-none-eabi/arm-none-eabi/bin/../lib/gcc/arm-none-eabi/5.2-GNUARM-NONE_v16.01/../../../../arm-none-eabi/lib/armv7-ar/thumb/fpu\libc.a(lib_a-ungetc.o)
                                                  c:/program files (x86)/kpit/gnuarm-nonev16.01-eabi/arm-none-eabi/arm-none-eabi/bin/../lib/gcc/arm-none-eabi/5.2-GNUARM-NONE_v16.01/../../../../arm-none-eabi/lib/armv7-ar/thumb/fpu\libc.a(lib_a-svfiscanf.o)
__swbuf                                           c:/program files (x86)/kpit/gnuarm-nonev16.01-eabi/arm-none-eabi/arm-none-eabi/bin/../lib/gcc/arm-none-eabi/5.2-GNUARM-NONE_v16.01/../../../../arm-none-eabi/lib/armv7-ar/thumb/fpu\libc.a(lib_a-wbuf.o)
__swbuf_r                                         c:/program files (x86)/kpit/gnuarm-nonev16.01-eabi/arm-none-eabi/arm-none-eabi/bin/../lib/gcc/arm-none-eabi/5.2-GNUARM-NONE_v16.01/../../../../arm-none-eabi/lib/armv7-ar/thumb/fpu\libc.a(lib_a-wbuf.o)
                                                  c:/program files (x86)/kpit/gnuarm-nonev16.01-eabi/arm-none-eabi/arm-none-eabi/bin/../lib/gcc/arm-none-eabi/5.2-GNUARM-NONE_v16.01/../../../../arm-none-eabi/lib/armv7-ar/thumb/fpu\libc.a(lib_a-fputwc.o)
__swrite                                          c:/program files (x86)/kpit/gnuarm-nonev16.01-eabi/arm-none-eabi/arm-none-eabi/bin/../lib/gcc/arm-none-eabi/5.2-GNUARM-NONE_v16.01/../../../../arm-none-eabi/lib/armv7-ar/thumb/fpu\libc.a(lib_a-stdio.o)
                                                  c:/program files (x86)/kpit/gnuarm-nonev16.01-eabi/arm-none-eabi/arm-none-eabi/bin/../lib/gcc/arm-none-eabi/5.2-GNUARM-NONE_v16.01/../../../../arm-none-eabi/lib/armv7-ar/thumb/fpu\libc.a(lib_a-findfp.o)
__swsetup_r                                       c:/program files (x86)/kpit/gnuarm-nonev16.01-eabi/arm-none-eabi/arm-none-eabi/bin/../lib/gcc/arm-none-eabi/5.2-GNUARM-NONE_v16.01/../../../../arm-none-eabi/lib/armv7-ar/thumb/fpu\libc.a(lib_a-wsetup.o)
                                                  c:/program files (x86)/kpit/gnuarm-nonev16.01-eabi/arm-none-eabi/arm-none-eabi/bin/../lib/gcc/arm-none-eabi/5.2-GNUARM-NONE_v16.01/../../../../arm-none-eabi/lib/armv7-ar/thumb/fpu\libc.a(lib_a-wbuf.o)
                                                  c:/program files (x86)/kpit/gnuarm-nonev16.01-eabi/arm-none-eabi/arm-none-eabi/bin/../lib/gcc/arm-none-eabi/5.2-GNUARM-NONE_v16.01/../../../../arm-none-eabi/lib/armv7-ar/thumb/fpu\libc.a(lib_a-fvwrite.o)
                                                  c:/program files (x86)/kpit/gnuarm-nonev16.01-eabi/arm-none-eabi/arm-none-eabi/bin/../lib/gcc/arm-none-eabi/5.2-GNUARM-NONE_v16.01/../../../../arm-none-eabi/lib/armv7-ar/thumb/fpu\libc.a(lib_a-vfiprintf.o)
                                                  c:/program files (x86)/kpit/gnuarm-nonev16.01-eabi/arm-none-eabi/arm-none-eabi/bin/../lib/gcc/arm-none-eabi/5.2-GNUARM-NONE_v16.01/../../../../arm-none-eabi/lib/armv7-ar/thumb/fpu\libc.a(lib_a-vfprintf.o)
__tz_lock                                         c:/program files (x86)/kpit/gnuarm-nonev16.01-eabi/arm-none-eabi/arm-none-eabi/bin/../lib/gcc/arm-none-eabi/5.2-GNUARM-NONE_v16.01/../../../../arm-none-eabi/lib/armv7-ar/thumb/fpu\libc.a(lib_a-tzlock.o)
                                                  c:/program files (x86)/kpit/gnuarm-nonev16.01-eabi/arm-none-eabi/arm-none-eabi/bin/../lib/gcc/arm-none-eabi/5.2-GNUARM-NONE_v16.01/../../../../arm-none-eabi/lib/armv7-ar/thumb/fpu\libc.a(lib_a-tzset_r.o)
                                                  c:/program files (x86)/kpit/gnuarm-nonev16.01-eabi/arm-none-eabi/arm-none-eabi/bin/../lib/gcc/arm-none-eabi/5.2-GNUARM-NONE_v16.01/../../../../arm-none-eabi/lib/armv7-ar/thumb/fpu\libc.a(lib_a-tzset.o)
                                                  c:/program files (x86)/kpit/gnuarm-nonev16.01-eabi/arm-none-eabi/arm-none-eabi/bin/../lib/gcc/arm-none-eabi/5.2-GNUARM-NONE_v16.01/../../../../arm-none-eabi/lib/armv7-ar/thumb/fpu\libc.a(lib_a-mktime.o)
                                                  c:/program files (x86)/kpit/gnuarm-nonev16.01-eabi/arm-none-eabi/arm-none-eabi/bin/../lib/gcc/arm-none-eabi/5.2-GNUARM-NONE_v16.01/../../../../arm-none-eabi/lib/armv7-ar/thumb/fpu\libc.a(lib_a-lcltime_r.o)
__tz_unlock                                       c:/program files (x86)/kpit/gnuarm-nonev16.01-eabi/arm-none-eabi/arm-none-eabi/bin/../lib/gcc/arm-none-eabi/5.2-GNUARM-NONE_v16.01/../../../../arm-none-eabi/lib/armv7-ar/thumb/fpu\libc.a(lib_a-tzlock.o)
                                                  c:/program files (x86)/kpit/gnuarm-nonev16.01-eabi/arm-none-eabi/arm-none-eabi/bin/../lib/gcc/arm-none-eabi/5.2-GNUARM-NONE_v16.01/../../../../arm-none-eabi/lib/armv7-ar/thumb/fpu\libc.a(lib_a-tzset_r.o)
                                                  c:/program files (x86)/kpit/gnuarm-nonev16.01-eabi/arm-none-eabi/arm-none-eabi/bin/../lib/gcc/arm-none-eabi/5.2-GNUARM-NONE_v16.01/../../../../arm-none-eabi/lib/armv7-ar/thumb/fpu\libc.a(lib_a-tzset.o)
                                                  c:/program files (x86)/kpit/gnuarm-nonev16.01-eabi/arm-none-eabi/arm-none-eabi/bin/../lib/gcc/arm-none-eabi/5.2-GNUARM-NONE_v16.01/../../../../arm-none-eabi/lib/armv7-ar/thumb/fpu\libc.a(lib_a-mktime.o)
                                                  c:/program files (x86)/kpit/gnuarm-nonev16.01-eabi/arm-none-eabi/arm-none-eabi/bin/../lib/gcc/arm-none-eabi/5.2-GNUARM-NONE_v16.01/../../../../arm-none-eabi/lib/armv7-ar/thumb/fpu\libc.a(lib_a-lcltime_r.o)
__tzcalc_limits                                   c:/program files (x86)/kpit/gnuarm-nonev16.01-eabi/arm-none-eabi/arm-none-eabi/bin/../lib/gcc/arm-none-eabi/5.2-GNUARM-NONE_v16.01/../../../../arm-none-eabi/lib/armv7-ar/thumb/fpu\libc.a(lib_a-tzcalc_limits.o)
                                                  c:/program files (x86)/kpit/gnuarm-nonev16.01-eabi/arm-none-eabi/arm-none-eabi/bin/../lib/gcc/arm-none-eabi/5.2-GNUARM-NONE_v16.01/../../../../arm-none-eabi/lib/armv7-ar/thumb/fpu\libc.a(lib_a-tzset_r.o)
                                                  c:/program files (x86)/kpit/gnuarm-nonev16.01-eabi/arm-none-eabi/arm-none-eabi/bin/../lib/gcc/arm-none-eabi/5.2-GNUARM-NONE_v16.01/../../../../arm-none-eabi/lib/armv7-ar/thumb/fpu\libc.a(lib_a-mktime.o)
                                                  c:/program files (x86)/kpit/gnuarm-nonev16.01-eabi/arm-none-eabi/arm-none-eabi/bin/../lib/gcc/arm-none-eabi/5.2-GNUARM-NONE_v16.01/../../../../arm-none-eabi/lib/armv7-ar/thumb/fpu\libc.a(lib_a-lcltime_r.o)
__udivmoddi4                                      c:/program files (x86)/kpit/gnuarm-nonev16.01-eabi/arm-none-eabi/arm-none-eabi/bin/../lib/gcc/arm-none-eabi/5.2-GNUARM-NONE_v16.01/armv7-ar/thumb/fpu\libgcc.a(_udivmoddi4.o)
                                                  c:/program files (x86)/kpit/gnuarm-nonev16.01-eabi/arm-none-eabi/arm-none-eabi/bin/../lib/gcc/arm-none-eabi/5.2-GNUARM-NONE_v16.01/armv7-ar/thumb/fpu\libgcc.a(_aeabi_uldivmod.o)
__udivsi3                                         c:/program files (x86)/kpit/gnuarm-nonev16.01-eabi/arm-none-eabi/arm-none-eabi/bin/../lib/gcc/arm-none-eabi/5.2-GNUARM-NONE_v16.01/armv7-ar/thumb/fpu\libgcc.a(_udivsi3.o)
__ulp                                             c:/program files (x86)/kpit/gnuarm-nonev16.01-eabi/arm-none-eabi/arm-none-eabi/bin/../lib/gcc/arm-none-eabi/5.2-GNUARM-NONE_v16.01/../../../../arm-none-eabi/lib/armv7-ar/thumb/fpu\libc.a(lib_a-mprec.o)
__user_initial_stackheap                          startup_RZ1AH.o
__v7_all_cache                                    cache.o
                                                  system_MBRZA1H.o
__wctomb                                          c:/program files (x86)/kpit/gnuarm-nonev16.01-eabi/arm-none-eabi/arm-none-eabi/bin/../lib/gcc/arm-none-eabi/5.2-GNUARM-NONE_v16.01/../../../../arm-none-eabi/lib/armv7-ar/thumb/fpu\libc.a(lib_a-wctomb_r.o)
                                                  c:/program files (x86)/kpit/gnuarm-nonev16.01-eabi/arm-none-eabi/arm-none-eabi/bin/../lib/gcc/arm-none-eabi/5.2-GNUARM-NONE_v16.01/../../../../arm-none-eabi/lib/armv7-ar/thumb/fpu\libc.a(lib_a-wcrtomb.o)
__zero_table_end__                                startup_RZ1AH.o
__zero_table_start__                              startup_RZ1AH.o
_calloc_r                                         c:/program files (x86)/kpit/gnuarm-nonev16.01-eabi/arm-none-eabi/arm-none-eabi/bin/../lib/gcc/arm-none-eabi/5.2-GNUARM-NONE_v16.01/../../../../arm-none-eabi/lib/armv7-ar/thumb/fpu\libc.a(lib_a-callocr.o)
                                                  c:/program files (x86)/kpit/gnuarm-nonev16.01-eabi/arm-none-eabi/arm-none-eabi/bin/../lib/gcc/arm-none-eabi/5.2-GNUARM-NONE_v16.01/../../../../arm-none-eabi/lib/armv7-ar/thumb/fpu\libc.a(lib_a-mprec.o)
_cleanup                                          c:/program files (x86)/kpit/gnuarm-nonev16.01-eabi/arm-none-eabi/arm-none-eabi/bin/../lib/gcc/arm-none-eabi/5.2-GNUARM-NONE_v16.01/../../../../arm-none-eabi/lib/armv7-ar/thumb/fpu\libc.a(lib_a-findfp.o)
_cleanup_r                                        c:/program files (x86)/kpit/gnuarm-nonev16.01-eabi/arm-none-eabi/arm-none-eabi/bin/../lib/gcc/arm-none-eabi/5.2-GNUARM-NONE_v16.01/../../../../arm-none-eabi/lib/armv7-ar/thumb/fpu\libc.a(lib_a-findfp.o)
                                                  c:/program files (x86)/kpit/gnuarm-nonev16.01-eabi/arm-none-eabi/arm-none-eabi/bin/../lib/gcc/arm-none-eabi/5.2-GNUARM-NONE_v16.01/../../../../arm-none-eabi/lib/armv7-ar/thumb/fpu\libc.a(lib_a-makebuf.o)
_close                                            c:/program files (x86)/kpit/gnuarm-nonev16.01-eabi/arm-none-eabi/arm-none-eabi/bin/../lib/gcc/arm-none-eabi/5.2-GNUARM-NONE_v16.01/../../../../arm-none-eabi/lib/armv7-ar/thumb/fpu\libc.a(lib_a-syscalls.o)
                                                  c:/program files (x86)/kpit/gnuarm-nonev16.01-eabi/arm-none-eabi/arm-none-eabi/bin/../lib/gcc/arm-none-eabi/5.2-GNUARM-NONE_v16.01/../../../../arm-none-eabi/lib/armv7-ar/thumb/fpu\libc.a(lib_a-closer.o)
_close_r                                          c:/program files (x86)/kpit/gnuarm-nonev16.01-eabi/arm-none-eabi/arm-none-eabi/bin/../lib/gcc/arm-none-eabi/5.2-GNUARM-NONE_v16.01/../../../../arm-none-eabi/lib/armv7-ar/thumb/fpu\libc.a(lib_a-closer.o)
                                                  c:/program files (x86)/kpit/gnuarm-nonev16.01-eabi/arm-none-eabi/arm-none-eabi/bin/../lib/gcc/arm-none-eabi/5.2-GNUARM-NONE_v16.01/../../../../arm-none-eabi/lib/armv7-ar/thumb/fpu\libc.a(lib_a-stdio.o)
_ctype_                                           c:/program files (x86)/kpit/gnuarm-nonev16.01-eabi/arm-none-eabi/arm-none-eabi/bin/../lib/gcc/arm-none-eabi/5.2-GNUARM-NONE_v16.01/../../../../arm-none-eabi/lib/armv7-ar/thumb/fpu\libc.a(lib_a-ctype_.o)
_daylight                                         c:/program files (x86)/kpit/gnuarm-nonev16.01-eabi/arm-none-eabi/arm-none-eabi/bin/../lib/gcc/arm-none-eabi/5.2-GNUARM-NONE_v16.01/../../../../arm-none-eabi/lib/armv7-ar/thumb/fpu\libc.a(lib_a-tzvars.o)
                                                  c:/program files (x86)/kpit/gnuarm-nonev16.01-eabi/arm-none-eabi/arm-none-eabi/bin/../lib/gcc/arm-none-eabi/5.2-GNUARM-NONE_v16.01/../../../../arm-none-eabi/lib/armv7-ar/thumb/fpu\libc.a(lib_a-tzset_r.o)
                                                  c:/program files (x86)/kpit/gnuarm-nonev16.01-eabi/arm-none-eabi/arm-none-eabi/bin/../lib/gcc/arm-none-eabi/5.2-GNUARM-NONE_v16.01/../../../../arm-none-eabi/lib/armv7-ar/thumb/fpu\libc.a(lib_a-mktime.o)
                                                  c:/program files (x86)/kpit/gnuarm-nonev16.01-eabi/arm-none-eabi/arm-none-eabi/bin/../lib/gcc/arm-none-eabi/5.2-GNUARM-NONE_v16.01/../../../../arm-none-eabi/lib/armv7-ar/thumb/fpu\libc.a(lib_a-lcltime_r.o)
_dtoa_r                                           c:/program files (x86)/kpit/gnuarm-nonev16.01-eabi/arm-none-eabi/arm-none-eabi/bin/../lib/gcc/arm-none-eabi/5.2-GNUARM-NONE_v16.01/../../../../arm-none-eabi/lib/armv7-ar/thumb/fpu\libc.a(lib_a-dtoa.o)
                                                  c:/program files (x86)/kpit/gnuarm-nonev16.01-eabi/arm-none-eabi/arm-none-eabi/bin/../lib/gcc/arm-none-eabi/5.2-GNUARM-NONE_v16.01/../../../../arm-none-eabi/lib/armv7-ar/thumb/fpu\libc.a(lib_a-vfprintf.o)
_exit                                             c:/program files (x86)/kpit/gnuarm-nonev16.01-eabi/arm-none-eabi/arm-none-eabi/bin/../lib/gcc/arm-none-eabi/5.2-GNUARM-NONE_v16.01/../../../../arm-none-eabi/lib/armv7-ar/thumb/fpu\libc.a(lib_a-syscalls.o)
                                                  c:/program files (x86)/kpit/gnuarm-nonev16.01-eabi/arm-none-eabi/arm-none-eabi/bin/../lib/gcc/arm-none-eabi/5.2-GNUARM-NONE_v16.01/../../../../arm-none-eabi/lib/armv7-ar/thumb/fpu\libc.a(lib_a-exit.o)
_fclose_r                                         c:/program files (x86)/kpit/gnuarm-nonev16.01-eabi/arm-none-eabi/arm-none-eabi/bin/../lib/gcc/arm-none-eabi/5.2-GNUARM-NONE_v16.01/../../../../arm-none-eabi/lib/armv7-ar/thumb/fpu\libc.a(lib_a-fclose.o)
                                                  c:/program files (x86)/kpit/gnuarm-nonev16.01-eabi/arm-none-eabi/arm-none-eabi/bin/../lib/gcc/arm-none-eabi/5.2-GNUARM-NONE_v16.01/../../../../arm-none-eabi/lib/armv7-ar/thumb/fpu\libc.a(lib_a-findfp.o)
_fflush_r                                         c:/program files (x86)/kpit/gnuarm-nonev16.01-eabi/arm-none-eabi/arm-none-eabi/bin/../lib/gcc/arm-none-eabi/5.2-GNUARM-NONE_v16.01/../../../../arm-none-eabi/lib/armv7-ar/thumb/fpu\libc.a(lib_a-fflush.o)
                                                  c:/program files (x86)/kpit/gnuarm-nonev16.01-eabi/arm-none-eabi/arm-none-eabi/bin/../lib/gcc/arm-none-eabi/5.2-GNUARM-NONE_v16.01/../../../../arm-none-eabi/lib/armv7-ar/thumb/fpu\libc.a(lib_a-wbuf.o)
                                                  c:/program files (x86)/kpit/gnuarm-nonev16.01-eabi/arm-none-eabi/arm-none-eabi/bin/../lib/gcc/arm-none-eabi/5.2-GNUARM-NONE_v16.01/../../../../arm-none-eabi/lib/armv7-ar/thumb/fpu\libc.a(lib_a-fvwrite.o)
                                                  c:/program files (x86)/kpit/gnuarm-nonev16.01-eabi/arm-none-eabi/arm-none-eabi/bin/../lib/gcc/arm-none-eabi/5.2-GNUARM-NONE_v16.01/../../../../arm-none-eabi/lib/armv7-ar/thumb/fpu\libc.a(lib_a-vfiprintf.o)
                                                  c:/program files (x86)/kpit/gnuarm-nonev16.01-eabi/arm-none-eabi/arm-none-eabi/bin/../lib/gcc/arm-none-eabi/5.2-GNUARM-NONE_v16.01/../../../../arm-none-eabi/lib/armv7-ar/thumb/fpu\libc.a(lib_a-ungetc.o)
                                                  c:/program files (x86)/kpit/gnuarm-nonev16.01-eabi/arm-none-eabi/arm-none-eabi/bin/../lib/gcc/arm-none-eabi/5.2-GNUARM-NONE_v16.01/../../../../arm-none-eabi/lib/armv7-ar/thumb/fpu\libc.a(lib_a-vfprintf.o)
_findenv_r                                        c:/program files (x86)/kpit/gnuarm-nonev16.01-eabi/arm-none-eabi/arm-none-eabi/bin/../lib/gcc/arm-none-eabi/5.2-GNUARM-NONE_v16.01/../../../../arm-none-eabi/lib/armv7-ar/thumb/fpu\libc.a(lib_a-getenv_r.o)
_fputwc_r                                         c:/program files (x86)/kpit/gnuarm-nonev16.01-eabi/arm-none-eabi/arm-none-eabi/bin/../lib/gcc/arm-none-eabi/5.2-GNUARM-NONE_v16.01/../../../../arm-none-eabi/lib/armv7-ar/thumb/fpu\libc.a(lib_a-fputwc.o)
                                                  c:/program files (x86)/kpit/gnuarm-nonev16.01-eabi/arm-none-eabi/arm-none-eabi/bin/../lib/gcc/arm-none-eabi/5.2-GNUARM-NONE_v16.01/../../../../arm-none-eabi/lib/armv7-ar/thumb/fpu\libc.a(lib_a-vfiprintf.o)
_free_r                                           c:/program files (x86)/kpit/gnuarm-nonev16.01-eabi/arm-none-eabi/arm-none-eabi/bin/../lib/gcc/arm-none-eabi/5.2-GNUARM-NONE_v16.01/../../../../arm-none-eabi/lib/armv7-ar/thumb/fpu\libc.a(lib_a-freer.o)
                                                  c:/program files (x86)/kpit/gnuarm-nonev16.01-eabi/arm-none-eabi/arm-none-eabi/bin/../lib/gcc/arm-none-eabi/5.2-GNUARM-NONE_v16.01/../../../../arm-none-eabi/lib/armv7-ar/thumb/fpu\libc.a(lib_a-reent.o)
                                                  c:/program files (x86)/kpit/gnuarm-nonev16.01-eabi/arm-none-eabi/arm-none-eabi/bin/../lib/gcc/arm-none-eabi/5.2-GNUARM-NONE_v16.01/../../../../arm-none-eabi/lib/armv7-ar/thumb/fpu\libc.a(lib_a-reallocr.o)
                                                  c:/program files (x86)/kpit/gnuarm-nonev16.01-eabi/arm-none-eabi/arm-none-eabi/bin/../lib/gcc/arm-none-eabi/5.2-GNUARM-NONE_v16.01/../../../../arm-none-eabi/lib/armv7-ar/thumb/fpu\libc.a(lib_a-fvwrite.o)
                                                  c:/program files (x86)/kpit/gnuarm-nonev16.01-eabi/arm-none-eabi/arm-none-eabi/bin/../lib/gcc/arm-none-eabi/5.2-GNUARM-NONE_v16.01/../../../../arm-none-eabi/lib/armv7-ar/thumb/fpu\libc.a(lib_a-fclose.o)
                                                  c:/program files (x86)/kpit/gnuarm-nonev16.01-eabi/arm-none-eabi/arm-none-eabi/bin/../lib/gcc/arm-none-eabi/5.2-GNUARM-NONE_v16.01/../../../../arm-none-eabi/lib/armv7-ar/thumb/fpu\libc.a(lib_a-svfiscanf.o)
                                                  c:/program files (x86)/kpit/gnuarm-nonev16.01-eabi/arm-none-eabi/arm-none-eabi/bin/../lib/gcc/arm-none-eabi/5.2-GNUARM-NONE_v16.01/../../../../arm-none-eabi/lib/armv7-ar/thumb/fpu\libc.a(lib_a-mallocr.o)
                                                  c:/program files (x86)/kpit/gnuarm-nonev16.01-eabi/arm-none-eabi/arm-none-eabi/bin/../lib/gcc/arm-none-eabi/5.2-GNUARM-NONE_v16.01/../../../../arm-none-eabi/lib/armv7-ar/thumb/fpu\libc.a(lib_a-malloc.o)
                                                  c:/program files (x86)/kpit/gnuarm-nonev16.01-eabi/arm-none-eabi/arm-none-eabi/bin/../lib/gcc/arm-none-eabi/5.2-GNUARM-NONE_v16.01/../../../../arm-none-eabi/lib/armv7-ar/thumb/fpu\libc.a(lib_a-fflush.o)
                                                  c:/program files (x86)/kpit/gnuarm-nonev16.01-eabi/arm-none-eabi/arm-none-eabi/bin/../lib/gcc/arm-none-eabi/5.2-GNUARM-NONE_v16.01/../../../../arm-none-eabi/lib/armv7-ar/thumb/fpu\libc.a(lib_a-wsetup.o)
_fstat                                            c:/program files (x86)/kpit/gnuarm-nonev16.01-eabi/arm-none-eabi/arm-none-eabi/bin/../lib/gcc/arm-none-eabi/5.2-GNUARM-NONE_v16.01/../../../../arm-none-eabi/lib/armv7-ar/thumb/fpu\libc.a(lib_a-syscalls.o)
                                                  c:/program files (x86)/kpit/gnuarm-nonev16.01-eabi/arm-none-eabi/arm-none-eabi/bin/../lib/gcc/arm-none-eabi/5.2-GNUARM-NONE_v16.01/../../../../arm-none-eabi/lib/armv7-ar/thumb/fpu\libc.a(lib_a-fstatr.o)
_fstat_r                                          c:/program files (x86)/kpit/gnuarm-nonev16.01-eabi/arm-none-eabi/arm-none-eabi/bin/../lib/gcc/arm-none-eabi/5.2-GNUARM-NONE_v16.01/../../../../arm-none-eabi/lib/armv7-ar/thumb/fpu\libc.a(lib_a-fstatr.o)
                                                  c:/program files (x86)/kpit/gnuarm-nonev16.01-eabi/arm-none-eabi/arm-none-eabi/bin/../lib/gcc/arm-none-eabi/5.2-GNUARM-NONE_v16.01/../../../../arm-none-eabi/lib/armv7-ar/thumb/fpu\libc.a(lib_a-makebuf.o)
_fwalk                                            c:/program files (x86)/kpit/gnuarm-nonev16.01-eabi/arm-none-eabi/arm-none-eabi/bin/../lib/gcc/arm-none-eabi/5.2-GNUARM-NONE_v16.01/../../../../arm-none-eabi/lib/armv7-ar/thumb/fpu\libc.a(lib_a-fwalk.o)
                                                  c:/program files (x86)/kpit/gnuarm-nonev16.01-eabi/arm-none-eabi/arm-none-eabi/bin/../lib/gcc/arm-none-eabi/5.2-GNUARM-NONE_v16.01/../../../../arm-none-eabi/lib/armv7-ar/thumb/fpu\libc.a(lib_a-findfp.o)
_fwalk_reent                                      c:/program files (x86)/kpit/gnuarm-nonev16.01-eabi/arm-none-eabi/arm-none-eabi/bin/../lib/gcc/arm-none-eabi/5.2-GNUARM-NONE_v16.01/../../../../arm-none-eabi/lib/armv7-ar/thumb/fpu\libc.a(lib_a-fwalk.o)
                                                  c:/program files (x86)/kpit/gnuarm-nonev16.01-eabi/arm-none-eabi/arm-none-eabi/bin/../lib/gcc/arm-none-eabi/5.2-GNUARM-NONE_v16.01/../../../../arm-none-eabi/lib/armv7-ar/thumb/fpu\libc.a(lib_a-findfp.o)
                                                  c:/program files (x86)/kpit/gnuarm-nonev16.01-eabi/arm-none-eabi/arm-none-eabi/bin/../lib/gcc/arm-none-eabi/5.2-GNUARM-NONE_v16.01/../../../../arm-none-eabi/lib/armv7-ar/thumb/fpu\libc.a(lib_a-fflush.o)
_getenv_r                                         c:/program files (x86)/kpit/gnuarm-nonev16.01-eabi/arm-none-eabi/arm-none-eabi/bin/../lib/gcc/arm-none-eabi/5.2-GNUARM-NONE_v16.01/../../../../arm-none-eabi/lib/armv7-ar/thumb/fpu\libc.a(lib_a-getenv_r.o)
                                                  c:/program files (x86)/kpit/gnuarm-nonev16.01-eabi/arm-none-eabi/arm-none-eabi/bin/../lib/gcc/arm-none-eabi/5.2-GNUARM-NONE_v16.01/../../../../arm-none-eabi/lib/armv7-ar/thumb/fpu\libc.a(lib_a-tzset_r.o)
_getpid                                           c:/program files (x86)/kpit/gnuarm-nonev16.01-eabi/arm-none-eabi/arm-none-eabi/bin/../lib/gcc/arm-none-eabi/5.2-GNUARM-NONE_v16.01/../../../../arm-none-eabi/lib/armv7-ar/thumb/fpu\libc.a(lib_a-syscalls.o)
_gettimeofday                                     c:/program files (x86)/kpit/gnuarm-nonev16.01-eabi/arm-none-eabi/arm-none-eabi/bin/../lib/gcc/arm-none-eabi/5.2-GNUARM-NONE_v16.01/../../../../arm-none-eabi/lib/armv7-ar/thumb/fpu\libc.a(lib_a-syscalls.o)
_global_impure_ptr                                c:/program files (x86)/kpit/gnuarm-nonev16.01-eabi/arm-none-eabi/arm-none-eabi/bin/../lib/gcc/arm-none-eabi/5.2-GNUARM-NONE_v16.01/../../../../arm-none-eabi/lib/armv7-ar/thumb/fpu\libc.a(lib_a-impure.o)
                                                  c:/program files (x86)/kpit/gnuarm-nonev16.01-eabi/arm-none-eabi/arm-none-eabi/bin/../lib/gcc/arm-none-eabi/5.2-GNUARM-NONE_v16.01/../../../../arm-none-eabi/lib/armv7-ar/thumb/fpu\libc.a(lib_a-findfp.o)
                                                  c:/program files (x86)/kpit/gnuarm-nonev16.01-eabi/arm-none-eabi/arm-none-eabi/bin/../lib/gcc/arm-none-eabi/5.2-GNUARM-NONE_v16.01/../../../../arm-none-eabi/lib/armv7-ar/thumb/fpu\libc.a(lib_a-fflush.o)
                                                  c:/program files (x86)/kpit/gnuarm-nonev16.01-eabi/arm-none-eabi/arm-none-eabi/bin/../lib/gcc/arm-none-eabi/5.2-GNUARM-NONE_v16.01/../../../../arm-none-eabi/lib/armv7-ar/thumb/fpu\libc.a(lib_a-__call_atexit.o)
                                                  c:/program files (x86)/kpit/gnuarm-nonev16.01-eabi/arm-none-eabi/arm-none-eabi/bin/../lib/gcc/arm-none-eabi/5.2-GNUARM-NONE_v16.01/../../../../arm-none-eabi/lib/armv7-ar/thumb/fpu\libc.a(lib_a-exit.o)
_impure_ptr                                       c:/program files (x86)/kpit/gnuarm-nonev16.01-eabi/arm-none-eabi/arm-none-eabi/bin/../lib/gcc/arm-none-eabi/5.2-GNUARM-NONE_v16.01/../../../../arm-none-eabi/lib/armv7-ar/thumb/fpu\libc.a(lib_a-impure.o)
                                                  c:/program files (x86)/kpit/gnuarm-nonev16.01-eabi/arm-none-eabi/arm-none-eabi/bin/../lib/gcc/arm-none-eabi/5.2-GNUARM-NONE_v16.01/../../../../arm-none-eabi/lib/armv7-ar/thumb/fpu\libc.a(lib_a-wcrtomb.o)
                                                  c:/program files (x86)/kpit/gnuarm-nonev16.01-eabi/arm-none-eabi/arm-none-eabi/bin/../lib/gcc/arm-none-eabi/5.2-GNUARM-NONE_v16.01/../../../../arm-none-eabi/lib/armv7-ar/thumb/fpu\libc.a(lib_a-wbuf.o)
                                                  c:/program files (x86)/kpit/gnuarm-nonev16.01-eabi/arm-none-eabi/arm-none-eabi/bin/../lib/gcc/arm-none-eabi/5.2-GNUARM-NONE_v16.01/../../../../arm-none-eabi/lib/armv7-ar/thumb/fpu\libc.a(lib_a-strtol.o)
                                                  c:/program files (x86)/kpit/gnuarm-nonev16.01-eabi/arm-none-eabi/arm-none-eabi/bin/../lib/gcc/arm-none-eabi/5.2-GNUARM-NONE_v16.01/../../../../arm-none-eabi/lib/armv7-ar/thumb/fpu\libc.a(lib_a-reent.o)
                                                  c:/program files (x86)/kpit/gnuarm-nonev16.01-eabi/arm-none-eabi/arm-none-eabi/bin/../lib/gcc/arm-none-eabi/5.2-GNUARM-NONE_v16.01/../../../../arm-none-eabi/lib/armv7-ar/thumb/fpu\libc.a(lib_a-mbrtowc.o)
                                                  c:/program files (x86)/kpit/gnuarm-nonev16.01-eabi/arm-none-eabi/arm-none-eabi/bin/../lib/gcc/arm-none-eabi/5.2-GNUARM-NONE_v16.01/../../../../arm-none-eabi/lib/armv7-ar/thumb/fpu\libc.a(lib_a-fputwc.o)
                                                  c:/program files (x86)/kpit/gnuarm-nonev16.01-eabi/arm-none-eabi/arm-none-eabi/bin/../lib/gcc/arm-none-eabi/5.2-GNUARM-NONE_v16.01/../../../../arm-none-eabi/lib/armv7-ar/thumb/fpu\libc.a(lib_a-fclose.o)
                                                  c:/program files (x86)/kpit/gnuarm-nonev16.01-eabi/arm-none-eabi/arm-none-eabi/bin/../lib/gcc/arm-none-eabi/5.2-GNUARM-NONE_v16.01/../../../../arm-none-eabi/lib/armv7-ar/thumb/fpu\libc.a(lib_a-vfiprintf.o)
                                                  c:/program files (x86)/kpit/gnuarm-nonev16.01-eabi/arm-none-eabi/arm-none-eabi/bin/../lib/gcc/arm-none-eabi/5.2-GNUARM-NONE_v16.01/../../../../arm-none-eabi/lib/armv7-ar/thumb/fpu\libc.a(lib_a-ungetc.o)
                                                  c:/program files (x86)/kpit/gnuarm-nonev16.01-eabi/arm-none-eabi/arm-none-eabi/bin/../lib/gcc/arm-none-eabi/5.2-GNUARM-NONE_v16.01/../../../../arm-none-eabi/lib/armv7-ar/thumb/fpu\libc.a(lib_a-strtoul.o)
                                                  c:/program files (x86)/kpit/gnuarm-nonev16.01-eabi/arm-none-eabi/arm-none-eabi/bin/../lib/gcc/arm-none-eabi/5.2-GNUARM-NONE_v16.01/../../../../arm-none-eabi/lib/armv7-ar/thumb/fpu\libc.a(lib_a-siscanf.o)
                                                  c:/program files (x86)/kpit/gnuarm-nonev16.01-eabi/arm-none-eabi/arm-none-eabi/bin/../lib/gcc/arm-none-eabi/5.2-GNUARM-NONE_v16.01/../../../../arm-none-eabi/lib/armv7-ar/thumb/fpu\libc.a(lib_a-malloc.o)
                                                  c:/program files (x86)/kpit/gnuarm-nonev16.01-eabi/arm-none-eabi/arm-none-eabi/bin/../lib/gcc/arm-none-eabi/5.2-GNUARM-NONE_v16.01/../../../../arm-none-eabi/lib/armv7-ar/thumb/fpu\libc.a(lib_a-locale.o)
                                                  c:/program files (x86)/kpit/gnuarm-nonev16.01-eabi/arm-none-eabi/arm-none-eabi/bin/../lib/gcc/arm-none-eabi/5.2-GNUARM-NONE_v16.01/../../../../arm-none-eabi/lib/armv7-ar/thumb/fpu\libc.a(lib_a-findfp.o)
                                                  c:/program files (x86)/kpit/gnuarm-nonev16.01-eabi/arm-none-eabi/arm-none-eabi/bin/../lib/gcc/arm-none-eabi/5.2-GNUARM-NONE_v16.01/../../../../arm-none-eabi/lib/armv7-ar/thumb/fpu\libc.a(lib_a-fflush.o)
                                                  c:/program files (x86)/kpit/gnuarm-nonev16.01-eabi/arm-none-eabi/arm-none-eabi/bin/../lib/gcc/arm-none-eabi/5.2-GNUARM-NONE_v16.01/../../../../arm-none-eabi/lib/armv7-ar/thumb/fpu\libc.a(lib_a-errno.o)
                                                  c:/program files (x86)/kpit/gnuarm-nonev16.01-eabi/arm-none-eabi/arm-none-eabi/bin/../lib/gcc/arm-none-eabi/5.2-GNUARM-NONE_v16.01/../../../../arm-none-eabi/lib/armv7-ar/thumb/fpu\libc.a(lib_a-wsetup.o)
                                                  c:/program files (x86)/kpit/gnuarm-nonev16.01-eabi/arm-none-eabi/arm-none-eabi/bin/../lib/gcc/arm-none-eabi/5.2-GNUARM-NONE_v16.01/../../../../arm-none-eabi/lib/armv7-ar/thumb/fpu\libc.a(lib_a-vfprintf.o)
                                                  c:/program files (x86)/kpit/gnuarm-nonev16.01-eabi/arm-none-eabi/arm-none-eabi/bin/../lib/gcc/arm-none-eabi/5.2-GNUARM-NONE_v16.01/../../../../arm-none-eabi/lib/armv7-ar/thumb/fpu\libc.a(lib_a-tzset.o)
                                                  c:/program files (x86)/kpit/gnuarm-nonev16.01-eabi/arm-none-eabi/arm-none-eabi/bin/../lib/gcc/arm-none-eabi/5.2-GNUARM-NONE_v16.01/../../../../arm-none-eabi/lib/armv7-ar/thumb/fpu\libc.a(lib_a-syscalls.o)
                                                  c:/program files (x86)/kpit/gnuarm-nonev16.01-eabi/arm-none-eabi/arm-none-eabi/bin/../lib/gcc/arm-none-eabi/5.2-GNUARM-NONE_v16.01/../../../../arm-none-eabi/lib/armv7-ar/thumb/fpu\libc.a(lib_a-lcltime.o)
                                                  error.o
_isatty                                           c:/program files (x86)/kpit/gnuarm-nonev16.01-eabi/arm-none-eabi/arm-none-eabi/bin/../lib/gcc/arm-none-eabi/5.2-GNUARM-NONE_v16.01/../../../../arm-none-eabi/lib/armv7-ar/thumb/fpu\libc.a(lib_a-syscalls.o)
                                                  c:/program files (x86)/kpit/gnuarm-nonev16.01-eabi/arm-none-eabi/arm-none-eabi/bin/../lib/gcc/arm-none-eabi/5.2-GNUARM-NONE_v16.01/../../../../arm-none-eabi/lib/armv7-ar/thumb/fpu\libc.a(lib_a-isattyr.o)
_isatty_r                                         c:/program files (x86)/kpit/gnuarm-nonev16.01-eabi/arm-none-eabi/arm-none-eabi/bin/../lib/gcc/arm-none-eabi/5.2-GNUARM-NONE_v16.01/../../../../arm-none-eabi/lib/armv7-ar/thumb/fpu\libc.a(lib_a-isattyr.o)
                                                  c:/program files (x86)/kpit/gnuarm-nonev16.01-eabi/arm-none-eabi/arm-none-eabi/bin/../lib/gcc/arm-none-eabi/5.2-GNUARM-NONE_v16.01/../../../../arm-none-eabi/lib/armv7-ar/thumb/fpu\libc.a(lib_a-makebuf.o)
_kernel_aalm_nfyinfo_table                        kernel_cfg.o
                                                  .\libkernel.a(alarm.o)
_kernel_aalminib_table                            kernel_cfg.o
                                                  .\libkernel.a(alarm.o)
_kernel_acyc_nfyinfo_table                        kernel_cfg.o
                                                  .\libkernel.a(cyclic.o)
_kernel_acycinib_table                            kernel_cfg.o
                                                  .\libkernel.a(cyclic.o)
_kernel_adtqinib_table                            kernel_cfg.o
                                                  .\libkernel.a(dataqueue.o)
_kernel_aflginib_table                            kernel_cfg.o
                                                  .\libkernel.a(eventflag.o)
_kernel_aisrinib_table                            kernel_cfg.o
                                                  .\libkernel.a(interrupt.o)
_kernel_almcb_table                               kernel_cfg.o
                                                  .\libkernel.a(alarm.o)
_kernel_alminib_table                             kernel_cfg.o
                                                  .\libkernel.a(alarm.o)
_kernel_ampfinib_table                            kernel_cfg.o
                                                  .\libkernel.a(mempfix.o)
_kernel_amtxinib_table                            kernel_cfg.o
_kernel_apdqinib_table                            kernel_cfg.o
_kernel_arm_memory_area                           .\libkernel.a(target_kernel_impl.o)
                                                  .\libkernel.a(core_kernel_impl.o)
_kernel_arm_mmu_initialize                        .\libkernel.a(core_kernel_impl.o)
_kernel_arm_tnum_memory_area                      .\libkernel.a(target_kernel_impl.o)
                                                  .\libkernel.a(core_kernel_impl.o)
_kernel_aseminib_table                            kernel_cfg.o
                                                  .\libkernel.a(semaphore.o)
_kernel_atinib_table                              kernel_cfg.o
                                                  .\libkernel.a(task.o)
_kernel_boundary_evttim                           .\libkernel.a(time_event.o)
                                                  .\libkernel.a(time_manage.o)
_kernel_call_alarm                                .\libkernel.a(alarm.o)
_kernel_call_cyclic                               .\libkernel.a(cyclic.o)
_kernel_call_exit_kernel                          .\libkernel.a(core_support.o)
                                                  .\libkernel.a(startup.o)
_kernel_call_inirtn                               kernel_cfg.o
                                                  .\libkernel.a(startup.o)
_kernel_call_isr                                  .\libkernel.a(interrupt.o)
                                                  kernel_cfg.o
_kernel_call_terrtn                               kernel_cfg.o
                                                  .\libkernel.a(startup.o)
_kernel_change_priority                           .\libkernel.a(task.o)
                                                  .\libkernel.a(task_manage.o)
_kernel_check_adjtim                              .\libkernel.a(time_event.o)
                                                  .\libkernel.a(time_manage.o)
_kernel_check_flg_cond                            .\libkernel.a(eventflag.o)
_kernel_check_nfyinfo                             .\libkernel.a(time_manage.o)
                                                  .\libkernel.a(alarm.o)
                                                  .\libkernel.a(cyclic.o)
_kernel_chip_initialize                           .\libkernel.a(chip_kernel_impl.o)
_kernel_chip_terminate                            .\libkernel.a(chip_kernel_impl.o)
                                                  .\libkernel.a(target_kernel_impl.o)
_kernel_core_initialize                           .\libkernel.a(core_kernel_impl.o)
                                                  .\libkernel.a(chip_kernel_impl.o)
_kernel_core_terminate                            .\libkernel.a(core_kernel_impl.o)
                                                  .\libkernel.a(chip_kernel_impl.o)
_kernel_current_evttim                            .\libkernel.a(time_event.o)
                                                  .\libkernel.a(time_manage.o)
_kernel_current_hrtcnt                            .\libkernel.a(time_event.o)
                                                  .\libkernel.a(startup.o)
_kernel_cyccb_table                               kernel_cfg.o
                                                  .\libkernel.a(cyclic.o)
_kernel_cycinib_table                             kernel_cfg.o
                                                  .\libkernel.a(cyclic.o)
_kernel_dabort_handler                            .\libkernel.a(core_support.o)
                                                  startup_RZ1AH.o
_kernel_default_exc_handler                       .\libkernel.a(core_kernel_impl.o)
                                                  kernel_cfg.o
                                                  system_MBRZA1H.o
_kernel_default_int_handler                       .\libkernel.a(core_kernel_impl.o)
                                                  kernel_cfg.o
_kernel_dequeue_data                              .\libkernel.a(dataqueue.o)
_kernel_dispatch                                  .\libkernel.a(core_support.o)
                                                  .\libkernel.a(interrupt.o)
                                                  .\libkernel.a(sys_manage.o)
                                                  .\libkernel.a(mempfix.o)
                                                  .\libkernel.a(dataqueue.o)
                                                  .\libkernel.a(eventflag.o)
                                                  .\libkernel.a(semaphore.o)
                                                  .\libkernel.a(task_term.o)
                                                  .\libkernel.a(task_sync.o)
                                                  .\libkernel.a(task_manage.o)
_kernel_dspflg                                    .\libkernel.a(task.o)
                                                  .\libkernel.a(interrupt.o)
                                                  .\libkernel.a(sys_manage.o)
                                                  .\libkernel.a(mempfix.o)
                                                  .\libkernel.a(dataqueue.o)
                                                  .\libkernel.a(eventflag.o)
                                                  .\libkernel.a(semaphore.o)
                                                  .\libkernel.a(task_term.o)
                                                  .\libkernel.a(task_sync.o)
_kernel_dtqcb_table                               kernel_cfg.o
                                                  .\libkernel.a(dataqueue.o)
_kernel_dtqinib_table                             kernel_cfg.o
                                                  .\libkernel.a(dataqueue.o)
_kernel_enadsp                                    .\libkernel.a(task.o)
                                                  .\libkernel.a(exception.o)
                                                  .\libkernel.a(interrupt.o)
                                                  .\libkernel.a(sys_manage.o)
                                                  .\libkernel.a(task_term.o)
_kernel_enqueue_data                              .\libkernel.a(dataqueue.o)
_kernel_exc_table                                 kernel_cfg.o
                                                  .\libkernel.a(core_support.o)
_kernel_excpt_nest_count                          .\libkernel.a(core_kernel_impl.o)
                                                  .\libkernel.a(interrupt.o)
                                                  .\libkernel.a(sys_manage.o)
                                                  .\libkernel.a(alarm.o)
                                                  .\libkernel.a(cyclic.o)
                                                  .\libkernel.a(time_manage.o)
                                                  .\libkernel.a(mempfix.o)
                                                  .\libkernel.a(dataqueue.o)
                                                  .\libkernel.a(eventflag.o)
                                                  .\libkernel.a(semaphore.o)
                                                  .\libkernel.a(task_term.o)
                                                  .\libkernel.a(task_sync.o)
                                                  .\libkernel.a(task_manage.o)
                                                  .\libkernel.a(time_event.o)
                                                  .\libkernel.a(core_support.o)
_kernel_exit_and_dispatch                         .\libkernel.a(core_support.o)
                                                  .\libkernel.a(interrupt.o)
                                                  .\libkernel.a(sys_manage.o)
                                                  .\libkernel.a(task_term.o)
_kernel_exit_kernel                               .\libkernel.a(startup.o)
                                                  .\libkernel.a(core_support.o)
_kernel_fiq_handler                               .\libkernel.a(core_support.o)
                                                  startup_RZ1AH.o
_kernel_flgcb_table                               kernel_cfg.o
                                                  .\libkernel.a(eventflag.o)
_kernel_flginib_table                             kernel_cfg.o
                                                  .\libkernel.a(eventflag.o)
_kernel_force_enqueue_data                        .\libkernel.a(dataqueue.o)
_kernel_force_send_data                           .\libkernel.a(dataqueue.o)
_kernel_free_almcb                                .\libkernel.a(alarm.o)
_kernel_free_cyccb                                .\libkernel.a(cyclic.o)
_kernel_free_dtqcb                                .\libkernel.a(dataqueue.o)
_kernel_free_flgcb                                .\libkernel.a(eventflag.o)
_kernel_free_isrcb                                .\libkernel.a(interrupt.o)
_kernel_free_mpfcb                                .\libkernel.a(mempfix.o)
_kernel_free_semcb                                .\libkernel.a(semaphore.o)
_kernel_free_tcb                                  .\libkernel.a(task.o)
                                                  .\libkernel.a(task_manage.o)
_kernel_get_mpf_block                             .\libkernel.a(mempfix.o)
_kernel_gicc_initialize                           .\libkernel.a(gic_kernel_impl.o)
                                                  .\libkernel.a(chip_kernel_impl.o)
_kernel_gicc_terminate                            .\libkernel.a(gic_kernel_impl.o)
                                                  .\libkernel.a(chip_kernel_impl.o)
_kernel_gicd_initialize                           .\libkernel.a(gic_kernel_impl.o)
                                                  .\libkernel.a(chip_kernel_impl.o)
_kernel_gicd_terminate                            .\libkernel.a(gic_kernel_impl.o)
                                                  .\libkernel.a(chip_kernel_impl.o)
_kernel_in_signal_time                            .\libkernel.a(time_event.o)
_kernel_inh_table                                 kernel_cfg.o
                                                  .\libkernel.a(core_support.o)
_kernel_init_wait_queue                           .\libkernel.a(wait.o)
                                                  .\libkernel.a(mempfix.o)
                                                  .\libkernel.a(dataqueue.o)
                                                  .\libkernel.a(eventflag.o)
                                                  .\libkernel.a(semaphore.o)
_kernel_initialize_alarm                          .\libkernel.a(alarm.o)
                                                  kernel_cfg.o
_kernel_initialize_cyclic                         .\libkernel.a(cyclic.o)
                                                  kernel_cfg.o
_kernel_initialize_dataqueue                      .\libkernel.a(dataqueue.o)
                                                  kernel_cfg.o
_kernel_initialize_eventflag                      .\libkernel.a(eventflag.o)
                                                  kernel_cfg.o
_kernel_initialize_interrupt                      .\libkernel.a(chip_kernel_impl.o)
                                                  kernel_cfg.o
_kernel_initialize_isr                            .\libkernel.a(interrupt.o)
                                                  kernel_cfg.o
_kernel_initialize_kmm                            .\libkernel.a(startup.o)
_kernel_initialize_mempfix                        .\libkernel.a(mempfix.o)
                                                  kernel_cfg.o
_kernel_initialize_object                         kernel_cfg.o
                                                  .\libkernel.a(startup.o)
_kernel_initialize_semaphore                      .\libkernel.a(semaphore.o)
                                                  kernel_cfg.o
_kernel_initialize_task                           .\libkernel.a(task.o)
                                                  kernel_cfg.o
_kernel_initialize_tmevt                          .\libkernel.a(time_event.o)
                                                  .\libkernel.a(startup.o)
_kernel_intcfg_table                              kernel_cfg.o
                                                  .\libkernel.a(interrupt.o)
                                                  .\libkernel.a(chip_kernel_impl.o)
_kernel_inthdr_231                                kernel_cfg.o
_kernel_inthdr_232                                kernel_cfg.o
_kernel_inthdr_37                                 kernel_cfg.o
_kernel_intinib_table                             kernel_cfg.o
                                                  .\libkernel.a(chip_kernel_impl.o)
_kernel_irc_begin_exc                             .\libkernel.a(gic_support.o)
                                                  .\libkernel.a(core_support.o)
_kernel_irc_begin_int                             .\libkernel.a(gic_support.o)
                                                  .\libkernel.a(core_support.o)
_kernel_irc_end_exc                               .\libkernel.a(gic_support.o)
                                                  .\libkernel.a(core_support.o)
_kernel_irc_end_int                               .\libkernel.a(gic_support.o)
                                                  .\libkernel.a(core_support.o)
_kernel_irc_get_intpri                            .\libkernel.a(gic_support.o)
                                                  .\libkernel.a(core_support.o)
_kernel_irq_handler                               .\libkernel.a(core_support.o)
                                                  startup_RZ1AH.o
_kernel_isr_queue_list                            kernel_cfg.o
                                                  .\libkernel.a(interrupt.o)
_kernel_isr_queue_table                           kernel_cfg.o
                                                  .\libkernel.a(interrupt.o)
_kernel_isrcb_table                               kernel_cfg.o
                                                  .\libkernel.a(interrupt.o)
_kernel_isrinib_table                             kernel_cfg.o
                                                  .\libkernel.a(interrupt.o)
_kernel_isrorder_table                            kernel_cfg.o
                                                  .\libkernel.a(interrupt.o)
_kernel_istack                                    kernel_cfg.o
_kernel_istk                                      kernel_cfg.o
_kernel_istkpt                                    kernel_cfg.o
                                                  .\libkernel.a(core_support.o)
_kernel_istksz                                    kernel_cfg.o
_kernel_kerflg                                    .\libkernel.a(startup.o)
                                                  .\libkernel.a(exception.o)
                                                  .\libkernel.a(sys_manage.o)
_kernel_kernel_free                               .\libkernel.a(startup.o)
                                                  .\libkernel.a(mempfix.o)
                                                  .\libkernel.a(dataqueue.o)
                                                  .\libkernel.a(task_manage.o)
_kernel_kernel_malloc                             .\libkernel.a(startup.o)
                                                  .\libkernel.a(mempfix.o)
                                                  .\libkernel.a(dataqueue.o)
                                                  .\libkernel.a(task_manage.o)
_kernel_kmm                                       kernel_cfg.o
                                                  .\libkernel.a(startup.o)
_kernel_kmmsz                                     kernel_cfg.o
                                                  .\libkernel.a(startup.o)
_kernel_make_active                               .\libkernel.a(task.o)
                                                  .\libkernel.a(task_manage.o)
_kernel_make_dormant                              .\libkernel.a(task.o)
                                                  .\libkernel.a(task_manage.o)
_kernel_make_non_runnable                         .\libkernel.a(task.o)
                                                  .\libkernel.a(wait.o)
                                                  .\libkernel.a(dataqueue.o)
                                                  .\libkernel.a(task_sync.o)
_kernel_make_runnable                             .\libkernel.a(task.o)
                                                  .\libkernel.a(wait.o)
                                                  .\libkernel.a(task_term.o)
                                                  .\libkernel.a(task_sync.o)
_kernel_make_wait_tmout                           .\libkernel.a(wait.o)
                                                  .\libkernel.a(dataqueue.o)
                                                  .\libkernel.a(task_sync.o)
_kernel_monotonic_evttim                          .\libkernel.a(time_event.o)
                                                  .\libkernel.a(time_manage.o)
_kernel_mpfcb_table                               kernel_cfg.o
                                                  .\libkernel.a(mempfix.o)
_kernel_mpfinib_table                             kernel_cfg.o
                                                  .\libkernel.a(mempfix.o)
_kernel_mtxcb_table                               kernel_cfg.o
_kernel_mtxhook_check_ceilpri                     .\libkernel.a(taskhook.o)
                                                  .\libkernel.a(task_manage.o)
_kernel_mtxhook_release_all                       .\libkernel.a(taskhook.o)
                                                  .\libkernel.a(task.o)
_kernel_mtxhook_scan_ceilmtx                      .\libkernel.a(taskhook.o)
                                                  .\libkernel.a(task_manage.o)
_kernel_mtxinib_table                             kernel_cfg.o
_kernel_notify_handler                            .\libkernel.a(time_manage.o)
                                                  .\libkernel.a(alarm.o)
                                                  .\libkernel.a(cyclic.o)
_kernel_p_runtsk                                  .\libkernel.a(task.o)
                                                  .\libkernel.a(wait.o)
                                                  .\libkernel.a(exception.o)
                                                  .\libkernel.a(interrupt.o)
                                                  .\libkernel.a(sys_manage.o)
                                                  .\libkernel.a(mempfix.o)
                                                  .\libkernel.a(dataqueue.o)
                                                  .\libkernel.a(eventflag.o)
                                                  .\libkernel.a(semaphore.o)
                                                  .\libkernel.a(task_term.o)
                                                  .\libkernel.a(task_sync.o)
                                                  .\libkernel.a(task_manage.o)
                                                  .\libkernel.a(core_support.o)
_kernel_p_schedtsk                                .\libkernel.a(task.o)
                                                  .\libkernel.a(interrupt.o)
                                                  .\libkernel.a(sys_manage.o)
                                                  .\libkernel.a(mempfix.o)
                                                  .\libkernel.a(dataqueue.o)
                                                  .\libkernel.a(eventflag.o)
                                                  .\libkernel.a(semaphore.o)
                                                  .\libkernel.a(task_term.o)
                                                  .\libkernel.a(task_sync.o)
                                                  .\libkernel.a(task_manage.o)
                                                  .\libkernel.a(core_support.o)
_kernel_pabort_handler                            .\libkernel.a(core_support.o)
                                                  startup_RZ1AH.o
_kernel_pdqcb_table                               kernel_cfg.o
_kernel_pdqinib_table                             kernel_cfg.o
_kernel_ready_primap                              .\libkernel.a(task.o)
_kernel_ready_queue                               .\libkernel.a(task.o)
                                                  .\libkernel.a(sys_manage.o)
_kernel_receive_data                              .\libkernel.a(dataqueue.o)
_kernel_rotate_ready_queue                        .\libkernel.a(task.o)
                                                  .\libkernel.a(sys_manage.o)
_kernel_search_schedtsk                           .\libkernel.a(task.o)
                                                  .\libkernel.a(interrupt.o)
                                                  .\libkernel.a(sys_manage.o)
                                                  .\libkernel.a(task_term.o)
_kernel_semcb_table                               kernel_cfg.o
                                                  .\libkernel.a(semaphore.o)
_kernel_seminib_table                             kernel_cfg.o
                                                  .\libkernel.a(semaphore.o)
_kernel_send_data                                 .\libkernel.a(dataqueue.o)
_kernel_set_hrt_event                             .\libkernel.a(time_event.o)
                                                  .\libkernel.a(time_manage.o)
                                                  .\libkernel.a(startup.o)
_kernel_signal_time                               .\libkernel.a(time_event.o)
                                                  .\libkernel.a(chip_timer.o)
_kernel_stack_ETHER_INPUT_TASK                    kernel_cfg.o
_kernel_stack_ETHER_OUTPUT_TASK                   kernel_cfg.o
_kernel_stack_EXC_TASK                            kernel_cfg.o
_kernel_stack_IF_MBED_PHY_TASK                    kernel_cfg.o
_kernel_stack_MAIN_TASK                           kernel_cfg.o
_kernel_stack_NET_TIMER_TASK                      kernel_cfg.o
_kernel_stack_TASK1                               kernel_cfg.o
_kernel_stack_TASK2                               kernel_cfg.o
_kernel_stack_TCP_OUTPUT_TASK                     kernel_cfg.o
_kernel_stack_TSKID_tTask_LogTask_Task            kernel_cfg.o
_kernel_start_dispatch                            .\libkernel.a(core_support.o)
                                                  .\libkernel.a(startup.o)
_kernel_start_r                                   .\libkernel.a(core_support.o)
                                                  .\libkernel.a(task.o)
_kernel_svc_handler                               .\libkernel.a(core_support.o)
                                                  startup_RZ1AH.o
_kernel_systim_offset                             .\libkernel.a(time_event.o)
                                                  .\libkernel.a(time_manage.o)
_kernel_target_exit                               .\libkernel.a(target_kernel_impl.o)
                                                  .\libkernel.a(startup.o)
_kernel_target_hrt_handler                        .\libkernel.a(chip_timer.o)
                                                  kernel_cfg.o
_kernel_target_hrt_initialize                     .\libkernel.a(chip_timer.o)
                                                  kernel_cfg.o
_kernel_target_hrt_raise_event                    .\libkernel.a(chip_timer.o)
                                                  .\libkernel.a(time_event.o)
_kernel_target_hrt_set_event                      .\libkernel.a(chip_timer.o)
                                                  .\libkernel.a(time_event.o)
_kernel_target_hrt_terminate                      .\libkernel.a(chip_timer.o)
                                                  kernel_cfg.o
_kernel_target_initialize                         .\libkernel.a(target_kernel_impl.o)
                                                  .\libkernel.a(startup.o)
_kernel_task_terminate                            .\libkernel.a(task.o)
                                                  .\libkernel.a(interrupt.o)
                                                  .\libkernel.a(sys_manage.o)
                                                  .\libkernel.a(task_term.o)
_kernel_tcb_table                                 kernel_cfg.o
                                                  .\libkernel.a(sys_manage.o)
                                                  .\libkernel.a(mempfix.o)
                                                  .\libkernel.a(dataqueue.o)
                                                  .\libkernel.a(eventflag.o)
                                                  .\libkernel.a(semaphore.o)
                                                  .\libkernel.a(task_term.o)
                                                  .\libkernel.a(task_sync.o)
                                                  .\libkernel.a(task_manage.o)
                                                  .\libkernel.a(task.o)
                                                  .\libkernel.a(core_support.o)
_kernel_tinib_table                               kernel_cfg.o
                                                  .\libkernel.a(task.o)
_kernel_tmax_almid                                kernel_cfg.o
                                                  .\libkernel.a(alarm.o)
_kernel_tmax_cycid                                kernel_cfg.o
                                                  .\libkernel.a(cyclic.o)
_kernel_tmax_dtqid                                kernel_cfg.o
                                                  .\libkernel.a(time_manage.o)
                                                  .\libkernel.a(dataqueue.o)
_kernel_tmax_flgid                                kernel_cfg.o
                                                  .\libkernel.a(time_manage.o)
                                                  .\libkernel.a(eventflag.o)
_kernel_tmax_isrid                                kernel_cfg.o
                                                  .\libkernel.a(interrupt.o)
_kernel_tmax_mpfid                                kernel_cfg.o
                                                  .\libkernel.a(mempfix.o)
_kernel_tmax_mtxid                                kernel_cfg.o
_kernel_tmax_pdqid                                kernel_cfg.o
_kernel_tmax_salmid                               kernel_cfg.o
                                                  .\libkernel.a(alarm.o)
_kernel_tmax_scycid                               kernel_cfg.o
                                                  .\libkernel.a(cyclic.o)
_kernel_tmax_sdtqid                               kernel_cfg.o
                                                  .\libkernel.a(dataqueue.o)
_kernel_tmax_semid                                kernel_cfg.o
                                                  .\libkernel.a(time_manage.o)
                                                  .\libkernel.a(semaphore.o)
_kernel_tmax_sflgid                               kernel_cfg.o
                                                  .\libkernel.a(eventflag.o)
_kernel_tmax_sisrid                               kernel_cfg.o
                                                  .\libkernel.a(interrupt.o)
_kernel_tmax_smpfid                               kernel_cfg.o
                                                  .\libkernel.a(mempfix.o)
_kernel_tmax_smtxid                               kernel_cfg.o
_kernel_tmax_spdqid                               kernel_cfg.o
_kernel_tmax_ssemid                               kernel_cfg.o
                                                  .\libkernel.a(semaphore.o)
_kernel_tmax_stskid                               kernel_cfg.o
                                                  .\libkernel.a(task_manage.o)
                                                  .\libkernel.a(task.o)
_kernel_tmax_tskid                                kernel_cfg.o
                                                  .\libkernel.a(time_manage.o)
                                                  .\libkernel.a(task_term.o)
                                                  .\libkernel.a(task_sync.o)
                                                  .\libkernel.a(task_manage.o)
                                                  .\libkernel.a(task.o)
_kernel_tmevt_down                                .\libkernel.a(time_event.o)
_kernel_tmevt_heap                                kernel_cfg.o
                                                  .\libkernel.a(time_event.o)
_kernel_tmevt_lefttim                             .\libkernel.a(time_event.o)
                                                  .\libkernel.a(alarm.o)
                                                  .\libkernel.a(cyclic.o)
_kernel_tmevt_up                                  .\libkernel.a(time_event.o)
_kernel_tmevtb_dequeue                            .\libkernel.a(time_event.o)
                                                  .\libkernel.a(wait.o)
                                                  .\libkernel.a(alarm.o)
                                                  .\libkernel.a(cyclic.o)
                                                  .\libkernel.a(task_term.o)
                                                  .\libkernel.a(task_sync.o)
                                                  .\libkernel.a(task.o)
_kernel_tmevtb_enqueue                            .\libkernel.a(time_event.o)
                                                  .\libkernel.a(wait.o)
                                                  .\libkernel.a(alarm.o)
                                                  .\libkernel.a(cyclic.o)
                                                  .\libkernel.a(task_sync.o)
_kernel_tmevtb_register                           .\libkernel.a(time_event.o)
                                                  .\libkernel.a(cyclic.o)
_kernel_tnum_cfg_intno                            kernel_cfg.o
                                                  .\libkernel.a(chip_kernel_impl.o)
_kernel_tnum_isr_queue                            kernel_cfg.o
                                                  .\libkernel.a(interrupt.o)
_kernel_torder_table                              kernel_cfg.o
                                                  .\libkernel.a(task.o)
_kernel_undef_handler                             .\libkernel.a(core_support.o)
                                                  startup_RZ1AH.o
_kernel_update_current_evttim                     .\libkernel.a(time_event.o)
                                                  .\libkernel.a(time_manage.o)
_kernel_wait_complete                             .\libkernel.a(wait.o)
                                                  .\libkernel.a(mempfix.o)
                                                  .\libkernel.a(dataqueue.o)
                                                  .\libkernel.a(eventflag.o)
                                                  .\libkernel.a(semaphore.o)
                                                  .\libkernel.a(task_sync.o)
_kernel_wait_tmout                                .\libkernel.a(wait.o)
_kernel_wait_tmout_ok                             .\libkernel.a(wait.o)
                                                  .\libkernel.a(task_sync.o)
_kernel_wobj_make_wait                            .\libkernel.a(wait.o)
                                                  .\libkernel.a(mempfix.o)
                                                  .\libkernel.a(dataqueue.o)
                                                  .\libkernel.a(eventflag.o)
                                                  .\libkernel.a(semaphore.o)
_kernel_wobj_make_wait_tmout                      .\libkernel.a(wait.o)
                                                  .\libkernel.a(mempfix.o)
                                                  .\libkernel.a(dataqueue.o)
                                                  .\libkernel.a(eventflag.o)
                                                  .\libkernel.a(semaphore.o)
_kernel_xlog_fsr                                  .\libkernel.a(core_kernel_impl.o)
_kernel_xlog_sys                                  .\libkernel.a(core_kernel_impl.o)
_kill                                             c:/program files (x86)/kpit/gnuarm-nonev16.01-eabi/arm-none-eabi/arm-none-eabi/bin/../lib/gcc/arm-none-eabi/5.2-GNUARM-NONE_v16.01/../../../../arm-none-eabi/lib/armv7-ar/thumb/fpu\libc.a(lib_a-syscalls.o)
_link                                             c:/program files (x86)/kpit/gnuarm-nonev16.01-eabi/arm-none-eabi/arm-none-eabi/bin/../lib/gcc/arm-none-eabi/5.2-GNUARM-NONE_v16.01/../../../../arm-none-eabi/lib/armv7-ar/thumb/fpu\libc.a(lib_a-syscalls.o)
_localeconv_r                                     c:/program files (x86)/kpit/gnuarm-nonev16.01-eabi/arm-none-eabi/arm-none-eabi/bin/../lib/gcc/arm-none-eabi/5.2-GNUARM-NONE_v16.01/../../../../arm-none-eabi/lib/armv7-ar/thumb/fpu\libc.a(lib_a-locale.o)
                                                  c:/program files (x86)/kpit/gnuarm-nonev16.01-eabi/arm-none-eabi/arm-none-eabi/bin/../lib/gcc/arm-none-eabi/5.2-GNUARM-NONE_v16.01/../../../../arm-none-eabi/lib/armv7-ar/thumb/fpu\libc.a(lib_a-vfprintf.o)
_lseek                                            c:/program files (x86)/kpit/gnuarm-nonev16.01-eabi/arm-none-eabi/arm-none-eabi/bin/../lib/gcc/arm-none-eabi/5.2-GNUARM-NONE_v16.01/../../../../arm-none-eabi/lib/armv7-ar/thumb/fpu\libc.a(lib_a-syscalls.o)
                                                  c:/program files (x86)/kpit/gnuarm-nonev16.01-eabi/arm-none-eabi/arm-none-eabi/bin/../lib/gcc/arm-none-eabi/5.2-GNUARM-NONE_v16.01/../../../../arm-none-eabi/lib/armv7-ar/thumb/fpu\libc.a(lib_a-lseekr.o)
_lseek_r                                          c:/program files (x86)/kpit/gnuarm-nonev16.01-eabi/arm-none-eabi/arm-none-eabi/bin/../lib/gcc/arm-none-eabi/5.2-GNUARM-NONE_v16.01/../../../../arm-none-eabi/lib/armv7-ar/thumb/fpu\libc.a(lib_a-lseekr.o)
                                                  c:/program files (x86)/kpit/gnuarm-nonev16.01-eabi/arm-none-eabi/arm-none-eabi/bin/../lib/gcc/arm-none-eabi/5.2-GNUARM-NONE_v16.01/../../../../arm-none-eabi/lib/armv7-ar/thumb/fpu\libc.a(lib_a-stdio.o)
_malloc_r                                         c:/program files (x86)/kpit/gnuarm-nonev16.01-eabi/arm-none-eabi/arm-none-eabi/bin/../lib/gcc/arm-none-eabi/5.2-GNUARM-NONE_v16.01/../../../../arm-none-eabi/lib/armv7-ar/thumb/fpu\libc.a(lib_a-mallocr.o)
                                                  c:/program files (x86)/kpit/gnuarm-nonev16.01-eabi/arm-none-eabi/arm-none-eabi/bin/../lib/gcc/arm-none-eabi/5.2-GNUARM-NONE_v16.01/../../../../arm-none-eabi/lib/armv7-ar/thumb/fpu\libc.a(lib_a-reallocr.o)
                                                  c:/program files (x86)/kpit/gnuarm-nonev16.01-eabi/arm-none-eabi/arm-none-eabi/bin/../lib/gcc/arm-none-eabi/5.2-GNUARM-NONE_v16.01/../../../../arm-none-eabi/lib/armv7-ar/thumb/fpu\libc.a(lib_a-fvwrite.o)
                                                  c:/program files (x86)/kpit/gnuarm-nonev16.01-eabi/arm-none-eabi/arm-none-eabi/bin/../lib/gcc/arm-none-eabi/5.2-GNUARM-NONE_v16.01/../../../../arm-none-eabi/lib/armv7-ar/thumb/fpu\libc.a(lib_a-callocr.o)
                                                  c:/program files (x86)/kpit/gnuarm-nonev16.01-eabi/arm-none-eabi/arm-none-eabi/bin/../lib/gcc/arm-none-eabi/5.2-GNUARM-NONE_v16.01/../../../../arm-none-eabi/lib/armv7-ar/thumb/fpu\libc.a(lib_a-ungetc.o)
                                                  c:/program files (x86)/kpit/gnuarm-nonev16.01-eabi/arm-none-eabi/arm-none-eabi/bin/../lib/gcc/arm-none-eabi/5.2-GNUARM-NONE_v16.01/../../../../arm-none-eabi/lib/armv7-ar/thumb/fpu\libc.a(lib_a-malloc.o)
                                                  c:/program files (x86)/kpit/gnuarm-nonev16.01-eabi/arm-none-eabi/arm-none-eabi/bin/../lib/gcc/arm-none-eabi/5.2-GNUARM-NONE_v16.01/../../../../arm-none-eabi/lib/armv7-ar/thumb/fpu\libc.a(lib_a-makebuf.o)
                                                  c:/program files (x86)/kpit/gnuarm-nonev16.01-eabi/arm-none-eabi/arm-none-eabi/bin/../lib/gcc/arm-none-eabi/5.2-GNUARM-NONE_v16.01/../../../../arm-none-eabi/lib/armv7-ar/thumb/fpu\libc.a(lib_a-findfp.o)
                                                  c:/program files (x86)/kpit/gnuarm-nonev16.01-eabi/arm-none-eabi/arm-none-eabi/bin/../lib/gcc/arm-none-eabi/5.2-GNUARM-NONE_v16.01/../../../../arm-none-eabi/lib/armv7-ar/thumb/fpu\libc.a(lib_a-tzset_r.o)
_malloc_trim_r                                    c:/program files (x86)/kpit/gnuarm-nonev16.01-eabi/arm-none-eabi/arm-none-eabi/bin/../lib/gcc/arm-none-eabi/5.2-GNUARM-NONE_v16.01/../../../../arm-none-eabi/lib/armv7-ar/thumb/fpu\libc.a(lib_a-freer.o)
_mbrtowc_r                                        c:/program files (x86)/kpit/gnuarm-nonev16.01-eabi/arm-none-eabi/arm-none-eabi/bin/../lib/gcc/arm-none-eabi/5.2-GNUARM-NONE_v16.01/../../../../arm-none-eabi/lib/armv7-ar/thumb/fpu\libc.a(lib_a-mbrtowc.o)
                                                  c:/program files (x86)/kpit/gnuarm-nonev16.01-eabi/arm-none-eabi/arm-none-eabi/bin/../lib/gcc/arm-none-eabi/5.2-GNUARM-NONE_v16.01/../../../../arm-none-eabi/lib/armv7-ar/thumb/fpu\libc.a(lib_a-svfiscanf.o)
_mbtowc_r                                         c:/program files (x86)/kpit/gnuarm-nonev16.01-eabi/arm-none-eabi/arm-none-eabi/bin/../lib/gcc/arm-none-eabi/5.2-GNUARM-NONE_v16.01/../../../../arm-none-eabi/lib/armv7-ar/thumb/fpu\libc.a(lib_a-mbtowc_r.o)
_mprec_log10                                      c:/program files (x86)/kpit/gnuarm-nonev16.01-eabi/arm-none-eabi/arm-none-eabi/bin/../lib/gcc/arm-none-eabi/5.2-GNUARM-NONE_v16.01/../../../../arm-none-eabi/lib/armv7-ar/thumb/fpu\libc.a(lib_a-mprec.o)
_open                                             c:/program files (x86)/kpit/gnuarm-nonev16.01-eabi/arm-none-eabi/arm-none-eabi/bin/../lib/gcc/arm-none-eabi/5.2-GNUARM-NONE_v16.01/../../../../arm-none-eabi/lib/armv7-ar/thumb/fpu\libc.a(lib_a-syscalls.o)
_raise                                            c:/program files (x86)/kpit/gnuarm-nonev16.01-eabi/arm-none-eabi/arm-none-eabi/bin/../lib/gcc/arm-none-eabi/5.2-GNUARM-NONE_v16.01/../../../../arm-none-eabi/lib/armv7-ar/thumb/fpu\libc.a(lib_a-syscalls.o)
_read                                             c:/program files (x86)/kpit/gnuarm-nonev16.01-eabi/arm-none-eabi/arm-none-eabi/bin/../lib/gcc/arm-none-eabi/5.2-GNUARM-NONE_v16.01/../../../../arm-none-eabi/lib/armv7-ar/thumb/fpu\libc.a(lib_a-syscalls.o)
                                                  c:/program files (x86)/kpit/gnuarm-nonev16.01-eabi/arm-none-eabi/arm-none-eabi/bin/../lib/gcc/arm-none-eabi/5.2-GNUARM-NONE_v16.01/../../../../arm-none-eabi/lib/armv7-ar/thumb/fpu\libc.a(lib_a-readr.o)
_read_r                                           c:/program files (x86)/kpit/gnuarm-nonev16.01-eabi/arm-none-eabi/arm-none-eabi/bin/../lib/gcc/arm-none-eabi/5.2-GNUARM-NONE_v16.01/../../../../arm-none-eabi/lib/armv7-ar/thumb/fpu\libc.a(lib_a-readr.o)
                                                  c:/program files (x86)/kpit/gnuarm-nonev16.01-eabi/arm-none-eabi/arm-none-eabi/bin/../lib/gcc/arm-none-eabi/5.2-GNUARM-NONE_v16.01/../../../../arm-none-eabi/lib/armv7-ar/thumb/fpu\libc.a(lib_a-stdio.o)
_realloc_r                                        c:/program files (x86)/kpit/gnuarm-nonev16.01-eabi/arm-none-eabi/arm-none-eabi/bin/../lib/gcc/arm-none-eabi/5.2-GNUARM-NONE_v16.01/../../../../arm-none-eabi/lib/armv7-ar/thumb/fpu\libc.a(lib_a-reallocr.o)
                                                  c:/program files (x86)/kpit/gnuarm-nonev16.01-eabi/arm-none-eabi/arm-none-eabi/bin/../lib/gcc/arm-none-eabi/5.2-GNUARM-NONE_v16.01/../../../../arm-none-eabi/lib/armv7-ar/thumb/fpu\libc.a(lib_a-fvwrite.o)
                                                  c:/program files (x86)/kpit/gnuarm-nonev16.01-eabi/arm-none-eabi/arm-none-eabi/bin/../lib/gcc/arm-none-eabi/5.2-GNUARM-NONE_v16.01/../../../../arm-none-eabi/lib/armv7-ar/thumb/fpu\libc.a(lib_a-ungetc.o)
_reclaim_reent                                    c:/program files (x86)/kpit/gnuarm-nonev16.01-eabi/arm-none-eabi/arm-none-eabi/bin/../lib/gcc/arm-none-eabi/5.2-GNUARM-NONE_v16.01/../../../../arm-none-eabi/lib/armv7-ar/thumb/fpu\libc.a(lib_a-reent.o)
_rename                                           c:/program files (x86)/kpit/gnuarm-nonev16.01-eabi/arm-none-eabi/arm-none-eabi/bin/../lib/gcc/arm-none-eabi/5.2-GNUARM-NONE_v16.01/../../../../arm-none-eabi/lib/armv7-ar/thumb/fpu\libc.a(lib_a-syscalls.o)
_sbrk                                             c:/program files (x86)/kpit/gnuarm-nonev16.01-eabi/arm-none-eabi/arm-none-eabi/bin/../lib/gcc/arm-none-eabi/5.2-GNUARM-NONE_v16.01/../../../../arm-none-eabi/lib/armv7-ar/thumb/fpu\libc.a(lib_a-syscalls.o)
                                                  c:/program files (x86)/kpit/gnuarm-nonev16.01-eabi/arm-none-eabi/arm-none-eabi/bin/../lib/gcc/arm-none-eabi/5.2-GNUARM-NONE_v16.01/../../../../arm-none-eabi/lib/armv7-ar/thumb/fpu\libc.a(lib_a-sbrkr.o)
_sbrk_r                                           c:/program files (x86)/kpit/gnuarm-nonev16.01-eabi/arm-none-eabi/arm-none-eabi/bin/../lib/gcc/arm-none-eabi/5.2-GNUARM-NONE_v16.01/../../../../arm-none-eabi/lib/armv7-ar/thumb/fpu\libc.a(lib_a-sbrkr.o)
                                                  c:/program files (x86)/kpit/gnuarm-nonev16.01-eabi/arm-none-eabi/arm-none-eabi/bin/../lib/gcc/arm-none-eabi/5.2-GNUARM-NONE_v16.01/../../../../arm-none-eabi/lib/armv7-ar/thumb/fpu\libc.a(lib_a-mallocr.o)
                                                  c:/program files (x86)/kpit/gnuarm-nonev16.01-eabi/arm-none-eabi/arm-none-eabi/bin/../lib/gcc/arm-none-eabi/5.2-GNUARM-NONE_v16.01/../../../../arm-none-eabi/lib/armv7-ar/thumb/fpu\libc.a(lib_a-freer.o)
_setlocale_r                                      c:/program files (x86)/kpit/gnuarm-nonev16.01-eabi/arm-none-eabi/arm-none-eabi/bin/../lib/gcc/arm-none-eabi/5.2-GNUARM-NONE_v16.01/../../../../arm-none-eabi/lib/armv7-ar/thumb/fpu\libc.a(lib_a-locale.o)
_sfread_r                                         c:/program files (x86)/kpit/gnuarm-nonev16.01-eabi/arm-none-eabi/arm-none-eabi/bin/../lib/gcc/arm-none-eabi/5.2-GNUARM-NONE_v16.01/../../../../arm-none-eabi/lib/armv7-ar/thumb/fpu\libc.a(lib_a-svfiscanf.o)
_siscanf_r                                        c:/program files (x86)/kpit/gnuarm-nonev16.01-eabi/arm-none-eabi/arm-none-eabi/bin/../lib/gcc/arm-none-eabi/5.2-GNUARM-NONE_v16.01/../../../../arm-none-eabi/lib/armv7-ar/thumb/fpu\libc.a(lib_a-siscanf.o)
_stat                                             c:/program files (x86)/kpit/gnuarm-nonev16.01-eabi/arm-none-eabi/arm-none-eabi/bin/../lib/gcc/arm-none-eabi/5.2-GNUARM-NONE_v16.01/../../../../arm-none-eabi/lib/armv7-ar/thumb/fpu\libc.a(lib_a-syscalls.o)
_strtol_r                                         c:/program files (x86)/kpit/gnuarm-nonev16.01-eabi/arm-none-eabi/arm-none-eabi/bin/../lib/gcc/arm-none-eabi/5.2-GNUARM-NONE_v16.01/../../../../arm-none-eabi/lib/armv7-ar/thumb/fpu\libc.a(lib_a-strtol.o)
                                                  c:/program files (x86)/kpit/gnuarm-nonev16.01-eabi/arm-none-eabi/arm-none-eabi/bin/../lib/gcc/arm-none-eabi/5.2-GNUARM-NONE_v16.01/../../../../arm-none-eabi/lib/armv7-ar/thumb/fpu\libc.a(lib_a-svfiscanf.o)
_strtoul_r                                        c:/program files (x86)/kpit/gnuarm-nonev16.01-eabi/arm-none-eabi/arm-none-eabi/bin/../lib/gcc/arm-none-eabi/5.2-GNUARM-NONE_v16.01/../../../../arm-none-eabi/lib/armv7-ar/thumb/fpu\libc.a(lib_a-strtoul.o)
                                                  c:/program files (x86)/kpit/gnuarm-nonev16.01-eabi/arm-none-eabi/arm-none-eabi/bin/../lib/gcc/arm-none-eabi/5.2-GNUARM-NONE_v16.01/../../../../arm-none-eabi/lib/armv7-ar/thumb/fpu\libc.a(lib_a-svfiscanf.o)
_sungetc_r                                        c:/program files (x86)/kpit/gnuarm-nonev16.01-eabi/arm-none-eabi/arm-none-eabi/bin/../lib/gcc/arm-none-eabi/5.2-GNUARM-NONE_v16.01/../../../../arm-none-eabi/lib/armv7-ar/thumb/fpu\libc.a(lib_a-svfiscanf.o)
_swiclose                                         c:/program files (x86)/kpit/gnuarm-nonev16.01-eabi/arm-none-eabi/arm-none-eabi/bin/../lib/gcc/arm-none-eabi/5.2-GNUARM-NONE_v16.01/../../../../arm-none-eabi/lib/armv7-ar/thumb/fpu\libc.a(lib_a-syscalls.o)
_swilseek                                         c:/program files (x86)/kpit/gnuarm-nonev16.01-eabi/arm-none-eabi/arm-none-eabi/bin/../lib/gcc/arm-none-eabi/5.2-GNUARM-NONE_v16.01/../../../../arm-none-eabi/lib/armv7-ar/thumb/fpu\libc.a(lib_a-syscalls.o)
_swiopen                                          c:/program files (x86)/kpit/gnuarm-nonev16.01-eabi/arm-none-eabi/arm-none-eabi/bin/../lib/gcc/arm-none-eabi/5.2-GNUARM-NONE_v16.01/../../../../arm-none-eabi/lib/armv7-ar/thumb/fpu\libc.a(lib_a-syscalls.o)
_swiread                                          c:/program files (x86)/kpit/gnuarm-nonev16.01-eabi/arm-none-eabi/arm-none-eabi/bin/../lib/gcc/arm-none-eabi/5.2-GNUARM-NONE_v16.01/../../../../arm-none-eabi/lib/armv7-ar/thumb/fpu\libc.a(lib_a-syscalls.o)
_swiwrite                                         c:/program files (x86)/kpit/gnuarm-nonev16.01-eabi/arm-none-eabi/arm-none-eabi/bin/../lib/gcc/arm-none-eabi/5.2-GNUARM-NONE_v16.01/../../../../arm-none-eabi/lib/armv7-ar/thumb/fpu\libc.a(lib_a-syscalls.o)
_system                                           c:/program files (x86)/kpit/gnuarm-nonev16.01-eabi/arm-none-eabi/arm-none-eabi/bin/../lib/gcc/arm-none-eabi/5.2-GNUARM-NONE_v16.01/../../../../arm-none-eabi/lib/armv7-ar/thumb/fpu\libc.a(lib_a-syscalls.o)
_times                                            c:/program files (x86)/kpit/gnuarm-nonev16.01-eabi/arm-none-eabi/arm-none-eabi/bin/../lib/gcc/arm-none-eabi/5.2-GNUARM-NONE_v16.01/../../../../arm-none-eabi/lib/armv7-ar/thumb/fpu\libc.a(lib_a-syscalls.o)
_timezone                                         c:/program files (x86)/kpit/gnuarm-nonev16.01-eabi/arm-none-eabi/arm-none-eabi/bin/../lib/gcc/arm-none-eabi/5.2-GNUARM-NONE_v16.01/../../../../arm-none-eabi/lib/armv7-ar/thumb/fpu\libc.a(lib_a-tzvars.o)
                                                  c:/program files (x86)/kpit/gnuarm-nonev16.01-eabi/arm-none-eabi/arm-none-eabi/bin/../lib/gcc/arm-none-eabi/5.2-GNUARM-NONE_v16.01/../../../../arm-none-eabi/lib/armv7-ar/thumb/fpu\libc.a(lib_a-tzset_r.o)
_tinet_arp_get_cache                              if_ether.o
_tinet_arp_init                                   if_ether.o
                                                  ethernet.o
_tinet_arp_input                                  if_ether.o
                                                  ethernet.o
_tinet_arp_request                                if_ether.o
_tinet_arp_resolve                                if_ether.o
                                                  ethernet.o
_tinet_convert_hexdigit                           net_subr.o
                                                  in_subr.o
_tinet_ether_broad_cast_addr                      ethernet.o
                                                  if_ether.o
_tinet_ether_get_ifnet                            ethernet.o
                                                  tcp_usrreq.o
                                                  if_mbed.o
                                                  if_ether.o
                                                  ip_input.o
                                                  in_subr.o
_tinet_ether_input_task                           ethernet.o
                                                  kernel_cfg.o
_tinet_ether_map_ipv4_multicast                   if_ether.o
                                                  ethernet.o
_tinet_ether_output                               ethernet.o
                                                  ip_output.o
_tinet_ether_output_task                          ethernet.o
                                                  kernel_cfg.o
_tinet_ether_raw_output                           ethernet.o
                                                  if_ether.o
_tinet_icmp_error                                 ip_icmp.o
                                                  ip_input.o
_tinet_icmp_input                                 ip_icmp.o
                                                  ip_input.o
_tinet_if_softc                                   if_mbed.o
_tinet_ifinit                                     if.o
                                                  ethernet.o
_tinet_in4_cksum                                  in_subr.o
                                                  tcp_subr.o
                                                  tcp_output.o
                                                  tcp_input.o
_tinet_in4_get_datagram                           in_subr.o
                                                  tcp_subr.o
                                                  ip_icmp.o
_tinet_in4_ifawithifp                             in_subr.o
                                                  tcp_usrreq.o
_tinet_in4_init                                   in_subr.o
                                                  ip_input.o
_tinet_in4_is_dstaddr_accept                      in_subr.o
                                                  tcp_subr.o
                                                  tcp_input.o
_tinet_in4_rtalloc                                in_subr.o
                                                  ip_output.o
_tinet_in4_rtredirect                             in_subr.o
                                                  ip_icmp.o
_tinet_in4_set_header                             in_subr.o
_tinet_in_cksum                                   in_subr.o
                                                  ip_icmp.o
                                                  ip_output.o
                                                  ip_input.o
_tinet_in_cksum_carry                             in_subr.o
_tinet_in_cksum_sum                               in_subr.o
_tinet_in_rtinit                                  in_subr.o
_tinet_in_rtnewentry                              in_subr.o
_tinet_in_rttimer                                 in_subr.o
_tinet_ip_frag_timer                              ip_input.o
                                                  in_subr.o
_tinet_ip_get_frag_queue                          ip_input.o
_tinet_ip_init                                    ip_input.o
                                                  net_timer.o
_tinet_ip_input                                   ip_input.o
                                                  ethernet.o
_tinet_ip_output                                  ip_output.o
                                                  tcp_subr.o
                                                  tcp_output.o
                                                  ip_icmp.o
_tinet_ip_remove_options                          ip_input.o
                                                  tcp_subr.o
_tinet_nbuf_get_tbl                               net_buf.o
_tinet_nbuf_get_tbl_size                          net_buf.o
_tinet_net_buf_max_siz                            net_buf.o
                                                  tcp_subr.o
                                                  tcp_output.o
_tinet_net_buf_siz                                net_buf.o
_tinet_net_rand                                   net_subr.o
                                                  tcp_usrreq.o
                                                  tcp_subr.o
                                                  tcp_timer.o
                                                  tcp_input.o
_tinet_net_srand                                  net_subr.o
                                                  tcp_subr.o
_tinet_rel_net_buf                                net_buf.o
                                                  tcp_subr_ncs.o
                                                  tcp_subr.o
                                                  tcp_input.o
                                                  if_ether.o
                                                  ethernet.o
                                                  ip_icmp.o
                                                  ip_output.o
                                                  ip_input.o
_tinet_rev_memcmp_word                            net_subr.o
_tinet_rev_memcpy_word                            net_subr.o
                                                  if_ether.o
_tinet_routing_tbl                                route_cfg.o
                                                  in_subr.o
_tinet_rus_net_buf                                net_buf.o
_tinet_tcp_alloc_auto_port                        tcp_subr.o
                                                  tcp_usrreq.o
                                                  tcp_output.o
_tinet_tcp_alloc_port                             tcp_subr.o
                                                  tcp_usrreq.o
                                                  tcp_output.o
_tinet_tcp_can_recv_more                          tcp_subr.o
                                                  tcp_usrreq.o
_tinet_tcp_can_send_more                          tcp_subr.o
                                                  tcp_usrreq.o
_tinet_tcp_cancel_timers                          tcp_timer.o
                                                  tcp_usrreq.o
                                                  tcp_subr.o
                                                  tcp_input.o
_tinet_tcp_cep                                    tinet_cfg.o
                                                  tcp_usrreq.o
                                                  tcp_subr_ncs.o
                                                  tcp_subr.o
                                                  tcp_timer.o
                                                  tcp_output.o
                                                  tcp_input.o
_tinet_tcp_close                                  tcp_subr.o
                                                  tcp_usrreq.o
                                                  tcp_timer.o
                                                  tcp_output.o
                                                  tcp_input.o
_tinet_tcp_drop                                   tcp_subr.o
                                                  tcp_timer.o
                                                  tcp_input.o
_tinet_tcp_drop_rwbuf_ncs                         tcp_subr_ncs.o
                                                  tcp_usrreq.o
_tinet_tcp_drop_swbuf_ncs                         tcp_subr_ncs.o
                                                  tcp_input.o
_tinet_tcp_fast_timo                              tcp_timer.o
                                                  tcp_subr.o
_tinet_tcp_find_cep                               tcp_subr.o
                                                  tcp_input.o
_tinet_tcp_free_reassq                            tcp_subr.o
                                                  tcp_usrreq.o
_tinet_tcp_get_rwbuf_addr_ncs                     tcp_subr_ncs.o
                                                  tcp_usrreq.o
                                                  tcp_subr.o
_tinet_tcp_get_segment                            tcp_subr.o
                                                  tcp_output.o
_tinet_tcp_get_swbuf_addr_ncs                     tcp_subr_ncs.o
                                                  tcp_usrreq.o
_tinet_tcp_init                                   tcp_subr.o
                                                  tcp_output.o
_tinet_tcp_init_cep                               tcp_subr.o
                                                  tcp_usrreq.o
_tinet_tcp_init_iss                               tcp_subr.o
                                                  tcp_usrreq.o
                                                  tcp_input.o
_tinet_tcp_input                                  tcp_input.o
                                                  ip_input.o
_tinet_tcp_is_swbuf_full_ncs                      tcp_subr_ncs.o
                                                  tcp_usrreq.o
_tinet_tcp_iss                                    tcp_subr.o
                                                  tcp_usrreq.o
                                                  tcp_timer.o
                                                  tcp_input.o
_tinet_tcp_lock_cep                               tcp_subr.o
                                                  tcp_usrreq.o
_tinet_tcp_move_ra2rw                             tcp_subr.o
                                                  tcp_input.o
_tinet_tcp_move_twcep                             tcp_input.o
                                                  tcp_timer.o
_tinet_tcp_notify                                 tcp_subr.o
                                                  ip_icmp.o
_tinet_tcp_range_set                              tcp_timer.o
                                                  tcp_input.o
_tinet_tcp_read_rwbuf_ncs                         tcp_subr_ncs.o
                                                  tcp_usrreq.o
                                                  tcp_subr.o
_tinet_tcp_read_swbuf_ncs                         tcp_subr_ncs.o
                                                  tcp_output.o
_tinet_tcp_rep                                    tinet_cfg.o
                                                  tcp_usrreq.o
                                                  tcp_subr.o
_tinet_tcp_respond                                tcp_subr.o
                                                  tcp_usrreq.o
                                                  tcp_timer.o
                                                  tcp_input.o
_tinet_tcp_rexmt_val                              tcp_subr.o
                                                  tcp_timer.o
                                                  tcp_input.o
_tinet_tcp_send_swbuf_ncs                         tcp_subr_ncs.o
                                                  tcp_usrreq.o
_tinet_tcp_set_header                             tcp_subr.o
_tinet_tcp_set_persist_timer                      tcp_timer.o
                                                  tcp_output.o
_tinet_tcp_slow_timo                              tcp_timer.o
                                                  tcp_subr.o
_tinet_tcp_twcep                                  tcp_input.o
                                                  tcp_timer.o
_tinet_tcp_user_closed                            tcp_usrreq.o
_tinet_tcp_wait_rwbuf                             tcp_subr.o
                                                  tcp_usrreq.o
_tinet_tcp_wait_swbuf_ncs                         tcp_subr_ncs.o
                                                  tcp_usrreq.o
_tinet_tcp_write_raque                            tcp_subr.o
                                                  tcp_input.o
_tinet_tcp_write_rwbuf_ncs                        tcp_subr_ncs.o
                                                  tcp_subr.o
                                                  tcp_input.o
_tinet_tcp_write_swbuf_ncs                        tcp_subr_ncs.o
                                                  tcp_usrreq.o
_tinet_tget_net_buf                               net_buf.o
                                                  tcp_subr.o
                                                  if_mbed.o
                                                  if_ether.o
                                                  ip_output.o
                                                  ip_input.o
_tinet_tget_net_buf_ex                            net_buf.o
                                                  in_subr.o
_tinet_timeout                                    net_timer.o
                                                  tcp_subr.o
                                                  tcp_timer.o
                                                  if_ether.o
                                                  if.o
                                                  in_subr.o
_tinet_tmax_tcp_cepid                             tinet_cfg.o
                                                  tcp_usrreq.o
                                                  tcp_subr.o
                                                  tcp_timer.o
                                                  tcp_output.o
_tinet_tmax_tcp_repid                             tinet_cfg.o
                                                  tcp_usrreq.o
                                                  tcp_subr.o
_tinet_untimeout                                  net_timer.o
_tzname                                           c:/program files (x86)/kpit/gnuarm-nonev16.01-eabi/arm-none-eabi/arm-none-eabi/bin/../lib/gcc/arm-none-eabi/5.2-GNUARM-NONE_v16.01/../../../../arm-none-eabi/lib/armv7-ar/thumb/fpu\libc.a(lib_a-tzvars.o)
                                                  c:/program files (x86)/kpit/gnuarm-nonev16.01-eabi/arm-none-eabi/arm-none-eabi/bin/../lib/gcc/arm-none-eabi/5.2-GNUARM-NONE_v16.01/../../../../arm-none-eabi/lib/armv7-ar/thumb/fpu\libc.a(lib_a-tzset_r.o)
_tzset_r                                          c:/program files (x86)/kpit/gnuarm-nonev16.01-eabi/arm-none-eabi/arm-none-eabi/bin/../lib/gcc/arm-none-eabi/5.2-GNUARM-NONE_v16.01/../../../../arm-none-eabi/lib/armv7-ar/thumb/fpu\libc.a(lib_a-tzset_r.o)
_tzset_unlocked                                   c:/program files (x86)/kpit/gnuarm-nonev16.01-eabi/arm-none-eabi/arm-none-eabi/bin/../lib/gcc/arm-none-eabi/5.2-GNUARM-NONE_v16.01/../../../../arm-none-eabi/lib/armv7-ar/thumb/fpu\libc.a(lib_a-tzset.o)
                                                  c:/program files (x86)/kpit/gnuarm-nonev16.01-eabi/arm-none-eabi/arm-none-eabi/bin/../lib/gcc/arm-none-eabi/5.2-GNUARM-NONE_v16.01/../../../../arm-none-eabi/lib/armv7-ar/thumb/fpu\libc.a(lib_a-mktime.o)
                                                  c:/program files (x86)/kpit/gnuarm-nonev16.01-eabi/arm-none-eabi/arm-none-eabi/bin/../lib/gcc/arm-none-eabi/5.2-GNUARM-NONE_v16.01/../../../../arm-none-eabi/lib/armv7-ar/thumb/fpu\libc.a(lib_a-lcltime_r.o)
_tzset_unlocked_r                                 c:/program files (x86)/kpit/gnuarm-nonev16.01-eabi/arm-none-eabi/arm-none-eabi/bin/../lib/gcc/arm-none-eabi/5.2-GNUARM-NONE_v16.01/../../../../arm-none-eabi/lib/armv7-ar/thumb/fpu\libc.a(lib_a-tzset_r.o)
                                                  c:/program files (x86)/kpit/gnuarm-nonev16.01-eabi/arm-none-eabi/arm-none-eabi/bin/../lib/gcc/arm-none-eabi/5.2-GNUARM-NONE_v16.01/../../../../arm-none-eabi/lib/armv7-ar/thumb/fpu\libc.a(lib_a-tzset.o)
_ungetc_r                                         c:/program files (x86)/kpit/gnuarm-nonev16.01-eabi/arm-none-eabi/arm-none-eabi/bin/../lib/gcc/arm-none-eabi/5.2-GNUARM-NONE_v16.01/../../../../arm-none-eabi/lib/armv7-ar/thumb/fpu\libc.a(lib_a-ungetc.o)
_unlink                                           c:/program files (x86)/kpit/gnuarm-nonev16.01-eabi/arm-none-eabi/arm-none-eabi/bin/../lib/gcc/arm-none-eabi/5.2-GNUARM-NONE_v16.01/../../../../arm-none-eabi/lib/armv7-ar/thumb/fpu\libc.a(lib_a-syscalls.o)
_vfiprintf_r                                      c:/program files (x86)/kpit/gnuarm-nonev16.01-eabi/arm-none-eabi/arm-none-eabi/bin/../lib/gcc/arm-none-eabi/5.2-GNUARM-NONE_v16.01/../../../../arm-none-eabi/lib/armv7-ar/thumb/fpu\libc.a(lib_a-vfiprintf.o)
_vfprintf_r                                       c:/program files (x86)/kpit/gnuarm-nonev16.01-eabi/arm-none-eabi/arm-none-eabi/bin/../lib/gcc/arm-none-eabi/5.2-GNUARM-NONE_v16.01/../../../../arm-none-eabi/lib/armv7-ar/thumb/fpu\libc.a(lib_a-vfprintf.o)
_wcrtomb_r                                        c:/program files (x86)/kpit/gnuarm-nonev16.01-eabi/arm-none-eabi/arm-none-eabi/bin/../lib/gcc/arm-none-eabi/5.2-GNUARM-NONE_v16.01/../../../../arm-none-eabi/lib/armv7-ar/thumb/fpu\libc.a(lib_a-wcrtomb.o)
                                                  c:/program files (x86)/kpit/gnuarm-nonev16.01-eabi/arm-none-eabi/arm-none-eabi/bin/../lib/gcc/arm-none-eabi/5.2-GNUARM-NONE_v16.01/../../../../arm-none-eabi/lib/armv7-ar/thumb/fpu\libc.a(lib_a-fputwc.o)
_wctomb_r                                         c:/program files (x86)/kpit/gnuarm-nonev16.01-eabi/arm-none-eabi/arm-none-eabi/bin/../lib/gcc/arm-none-eabi/5.2-GNUARM-NONE_v16.01/../../../../arm-none-eabi/lib/armv7-ar/thumb/fpu\libc.a(lib_a-wctomb_r.o)
_write                                            c:/program files (x86)/kpit/gnuarm-nonev16.01-eabi/arm-none-eabi/arm-none-eabi/bin/../lib/gcc/arm-none-eabi/5.2-GNUARM-NONE_v16.01/../../../../arm-none-eabi/lib/armv7-ar/thumb/fpu\libc.a(lib_a-syscalls.o)
                                                  c:/program files (x86)/kpit/gnuarm-nonev16.01-eabi/arm-none-eabi/arm-none-eabi/bin/../lib/gcc/arm-none-eabi/5.2-GNUARM-NONE_v16.01/../../../../arm-none-eabi/lib/armv7-ar/thumb/fpu\libc.a(lib_a-writer.o)
_write_r                                          c:/program files (x86)/kpit/gnuarm-nonev16.01-eabi/arm-none-eabi/arm-none-eabi/bin/../lib/gcc/arm-none-eabi/5.2-GNUARM-NONE_v16.01/../../../../arm-none-eabi/lib/armv7-ar/thumb/fpu\libc.a(lib_a-writer.o)
                                                  c:/program files (x86)/kpit/gnuarm-nonev16.01-eabi/arm-none-eabi/arm-none-eabi/bin/../lib/gcc/arm-none-eabi/5.2-GNUARM-NONE_v16.01/../../../../arm-none-eabi/lib/armv7-ar/thumb/fpu\libc.a(lib_a-stdio.o)
acre_alm                                          .\libkernel.a(alarm.o)
                                                  sample1.o
acre_cyc                                          .\libkernel.a(cyclic.o)
acre_dtq                                          .\libkernel.a(dataqueue.o)
acre_flg                                          .\libkernel.a(eventflag.o)
acre_isr                                          .\libkernel.a(interrupt.o)
acre_mpf                                          .\libkernel.a(mempfix.o)
acre_sem                                          .\libkernel.a(semaphore.o)
acre_tsk                                          .\libkernel.a(task_manage.o)
                                                  sample1.o
act_tsk                                           .\libkernel.a(task_manage.o)
                                                  .\libkernel.a(time_manage.o)
                                                  if_mbed.o
                                                  ethernet.o
                                                  net_timer.o
                                                  sample1.o
addr                                              sample1n.o
adj_tim                                           .\libkernel.a(time_manage.o)
alarm_handler                                     sample1.o
analogin_init                                     analogin_api.o
analogin_read                                     analogin_api.o
analogin_read_u16                                 analogin_api.o
arm_disable_dcache                                .\libkernel.a(arm.o)
                                                  .\libkernel.a(chip_kernel_impl.o)
arm_disable_icache                                .\libkernel.a(arm.o)
                                                  .\libkernel.a(chip_kernel_impl.o)
arm_enable_dcache                                 .\libkernel.a(arm.o)
                                                  .\libkernel.a(chip_kernel_impl.o)
arm_enable_icache                                 .\libkernel.a(arm.o)
                                                  .\libkernel.a(chip_kernel_impl.o)
armv7_clean_and_invalidate_dcache                 .\libkernel.a(arm.o)
armv7_invalidate_dcache                           .\libkernel.a(arm.o)
attach_rtc                                        rtc_time.o
boot_loader                                       mbed_sf_boot.o
                                                  startup_RZ1AH.o
callback_nblk_tcp                                 sample1n.o
                                                  tinet_cfg.o
can_act                                           .\libkernel.a(task_manage.o)
                                                  sample1.o
can_filter                                        can_api.o
can_free                                          can_api.o
can_frequency                                     can_api.o
can_init                                          can_api.o
can_irq_free                                      can_api.o
can_irq_init                                      can_api.o
can_irq_set                                       can_api.o
can_mode                                          can_api.o
can_monitor                                       can_api.o
can_rderror                                       can_api.o
can_read                                          can_api.o
can_reset                                         can_api.o
can_tderror                                       can_api.o
can_write                                         can_api.o
can_wup                                           .\libkernel.a(task_sync.o)
                                                  sample1.o
chg_ipm                                           .\libkernel.a(interrupt.o)
chg_pri                                           .\libkernel.a(task_manage.o)
                                                  sample1.o
cleanup_glue                                      c:/program files (x86)/kpit/gnuarm-nonev16.01-eabi/arm-none-eabi/arm-none-eabi/bin/../lib/gcc/arm-none-eabi/5.2-GNUARM-NONE_v16.01/../../../../arm-none-eabi/lib/armv7-ar/thumb/fpu\libc.a(lib_a-reent.o)
clock                                             rtc_time.o
clr_flg                                           .\libkernel.a(eventflag.o)
                                                  tcp_usrreq.o
                                                  tcp_subr_ncs.o
                                                  tcp_subr.o
connected                                         sample1n.o
cpuexc_handler                                    sample1.o
                                                  kernel_cfg.o
cpuexc_tskid                                      sample1.o
create_translation_table                          mmu_Renesas_RZ_A1.o
                                                  startup_RZ1AH.o
cyclic_handler                                    sample1.o
                                                  kernel_cfg.o
del_alm                                           .\libkernel.a(alarm.o)
                                                  sample1.o
del_cyc                                           .\libkernel.a(cyclic.o)
del_dtq                                           .\libkernel.a(dataqueue.o)
del_flg                                           .\libkernel.a(eventflag.o)
del_isr                                           .\libkernel.a(interrupt.o)
del_mpf                                           .\libkernel.a(mempfix.o)
del_sem                                           .\libkernel.a(semaphore.o)
del_tsk                                           .\libkernel.a(task_manage.o)
                                                  sample1.o
dis_dsp                                           .\libkernel.a(sys_manage.o)
                                                  tSerialPortMain.o
dis_int                                           .\libkernel.a(interrupt.o)
                                                  tSerialPortMain.o
dis_ter                                           .\libkernel.a(task_term.o)
                                                  sample1.o
disconnecting                                     sample1n.o
div                                               c:/program files (x86)/kpit/gnuarm-nonev16.01-eabi/arm-none-eabi/arm-none-eabi/bin/../lib/gcc/arm-none-eabi/5.2-GNUARM-NONE_v16.01/../../../../arm-none-eabi/lib/armv7-ar/thumb/fpu\libc.a(lib_a-div.o)
                                                  c:/program files (x86)/kpit/gnuarm-nonev16.01-eabi/arm-none-eabi/arm-none-eabi/bin/../lib/gcc/arm-none-eabi/5.2-GNUARM-NONE_v16.01/../../../../arm-none-eabi/lib/armv7-ar/thumb/fpu\libc.a(lib_a-mktime.o)
dly_tsk                                           .\libkernel.a(task_sync.o)
                                                  .\libkernel.a(target_kernel_impl.o)
                                                  tcp_input.o
                                                  if_mbed.o
                                                  tLogTaskMain.o
                                                  sample1.o
                                                  sample1n.o
dst                                               sample1n.o
ena_dsp                                           .\libkernel.a(sys_manage.o)
                                                  tSerialPortMain.o
ena_int                                           .\libkernel.a(interrupt.o)
                                                  tPutLogGRPeach.o
                                                  tSerialPortMain.o
ena_ter                                           .\libkernel.a(task_term.o)
                                                  sample1.o
end                                               c:/program files (x86)/kpit/gnuarm-nonev16.01-eabi/arm-none-eabi/arm-none-eabi/bin/../lib/gcc/arm-none-eabi/5.2-GNUARM-NONE_v16.01/../../../../arm-none-eabi/lib/armv7-ar/thumb/fpu\libc.a(lib_a-syscalls.o)
environ                                           c:/program files (x86)/kpit/gnuarm-nonev16.01-eabi/arm-none-eabi/arm-none-eabi/bin/../lib/gcc/arm-none-eabi/5.2-GNUARM-NONE_v16.01/../../../../arm-none-eabi/lib/armv7-ar/thumb/fpu\libc.a(lib_a-environ.o)
                                                  c:/program files (x86)/kpit/gnuarm-nonev16.01-eabi/arm-none-eabi/arm-none-eabi/bin/../lib/gcc/arm-none-eabi/5.2-GNUARM-NONE_v16.01/../../../../arm-none-eabi/lib/armv7-ar/thumb/fpu\libc.a(lib_a-getenv_r.o)
errno                                             c:/program files (x86)/kpit/gnuarm-nonev16.01-eabi/arm-none-eabi/arm-none-eabi/bin/../lib/gcc/arm-none-eabi/5.2-GNUARM-NONE_v16.01/../../../../arm-none-eabi/lib/armv7-ar/thumb/fpu\libc.a(lib_a-reent.o)
                                                  c:/program files (x86)/kpit/gnuarm-nonev16.01-eabi/arm-none-eabi/arm-none-eabi/bin/../lib/gcc/arm-none-eabi/5.2-GNUARM-NONE_v16.01/../../../../arm-none-eabi/lib/armv7-ar/thumb/fpu\libc.a(lib_a-readr.o)
                                                  c:/program files (x86)/kpit/gnuarm-nonev16.01-eabi/arm-none-eabi/arm-none-eabi/bin/../lib/gcc/arm-none-eabi/5.2-GNUARM-NONE_v16.01/../../../../arm-none-eabi/lib/armv7-ar/thumb/fpu\libc.a(lib_a-lseekr.o)
                                                  c:/program files (x86)/kpit/gnuarm-nonev16.01-eabi/arm-none-eabi/arm-none-eabi/bin/../lib/gcc/arm-none-eabi/5.2-GNUARM-NONE_v16.01/../../../../arm-none-eabi/lib/armv7-ar/thumb/fpu\libc.a(lib_a-isattyr.o)
                                                  c:/program files (x86)/kpit/gnuarm-nonev16.01-eabi/arm-none-eabi/arm-none-eabi/bin/../lib/gcc/arm-none-eabi/5.2-GNUARM-NONE_v16.01/../../../../arm-none-eabi/lib/armv7-ar/thumb/fpu\libc.a(lib_a-fstatr.o)
                                                  c:/program files (x86)/kpit/gnuarm-nonev16.01-eabi/arm-none-eabi/arm-none-eabi/bin/../lib/gcc/arm-none-eabi/5.2-GNUARM-NONE_v16.01/../../../../arm-none-eabi/lib/armv7-ar/thumb/fpu\libc.a(lib_a-closer.o)
                                                  c:/program files (x86)/kpit/gnuarm-nonev16.01-eabi/arm-none-eabi/arm-none-eabi/bin/../lib/gcc/arm-none-eabi/5.2-GNUARM-NONE_v16.01/../../../../arm-none-eabi/lib/armv7-ar/thumb/fpu\libc.a(lib_a-writer.o)
                                                  c:/program files (x86)/kpit/gnuarm-nonev16.01-eabi/arm-none-eabi/arm-none-eabi/bin/../lib/gcc/arm-none-eabi/5.2-GNUARM-NONE_v16.01/../../../../arm-none-eabi/lib/armv7-ar/thumb/fpu\libc.a(lib_a-sbrkr.o)
error                                             error.o
                                                  spi_api.o
                                                  pinmap_common.o
                                                  assert.o
ether_set_link_callback                           ethernet.o
ether_set_link_down                               ethernet.o
                                                  if_mbed.o
ether_set_link_up                                 ethernet.o
                                                  if_mbed.o
ethernet_address                                  ethernet_api.o
ethernet_free                                     ethernet_api.o
ethernet_init                                     ethernet_api.o
ethernet_link                                     ethernet_api.o
                                                  if_mbed.o
ethernet_read                                     ethernet_api.o
                                                  if_mbed.o
ethernet_receive                                  ethernet_api.o
                                                  if_mbed.o
ethernet_send                                     ethernet_api.o
                                                  if_mbed.o
ethernet_set_link                                 ethernet_api.o
                                                  if_mbed.o
ethernet_write                                    ethernet_api.o
                                                  if_mbed.o
ethernetext_chk_link_mode                         ethernet_api.o
                                                  if_mbed.o
ethernetext_init                                  ethernet_api.o
                                                  if_mbed.o
ethernetext_set_link_mode                         ethernet_api.o
                                                  if_mbed.o
ethernetext_start_stop                            ethernet_api.o
                                                  if_mbed.o
exc_task                                          sample1.o
                                                  kernel_cfg.o
exit                                              c:/program files (x86)/kpit/gnuarm-nonev16.01-eabi/arm-none-eabi/arm-none-eabi/bin/../lib/gcc/arm-none-eabi/5.2-GNUARM-NONE_v16.01/../../../../arm-none-eabi/lib/armv7-ar/thumb/fpu\libc.a(lib_a-exit.o)
                                                  error.o
ext_ker                                           .\libkernel.a(startup.o)
                                                  .\libkernel.a(core_kernel_impl.o)
                                                  sample1.o
ext_tsk                                           .\libkernel.a(task_term.o)
                                                  .\libkernel.a(core_support.o)
                                                  sample1.o
fch_hrt                                           .\libkernel.a(time_manage.o)
                                                  sample1.o
fclose                                            c:/program files (x86)/kpit/gnuarm-nonev16.01-eabi/arm-none-eabi/arm-none-eabi/bin/../lib/gcc/arm-none-eabi/5.2-GNUARM-NONE_v16.01/../../../../arm-none-eabi/lib/armv7-ar/thumb/fpu\libc.a(lib_a-fclose.o)
fflush                                            c:/program files (x86)/kpit/gnuarm-nonev16.01-eabi/arm-none-eabi/arm-none-eabi/bin/../lib/gcc/arm-none-eabi/5.2-GNUARM-NONE_v16.01/../../../../arm-none-eabi/lib/armv7-ar/thumb/fpu\libc.a(lib_a-fflush.o)
flush_snd_buff                                    sample1n.o
fputwc                                            c:/program files (x86)/kpit/gnuarm-nonev16.01-eabi/arm-none-eabi/arm-none-eabi/bin/../lib/gcc/arm-none-eabi/5.2-GNUARM-NONE_v16.01/../../../../arm-none-eabi/lib/armv7-ar/thumb/fpu\libc.a(lib_a-fputwc.o)
free                                              c:/program files (x86)/kpit/gnuarm-nonev16.01-eabi/arm-none-eabi/arm-none-eabi/bin/../lib/gcc/arm-none-eabi/5.2-GNUARM-NONE_v16.01/../../../../arm-none-eabi/lib/armv7-ar/thumb/fpu\libc.a(lib_a-malloc.o)
                                                  c:/program files (x86)/kpit/gnuarm-nonev16.01-eabi/arm-none-eabi/arm-none-eabi/bin/../lib/gcc/arm-none-eabi/5.2-GNUARM-NONE_v16.01/../../../../arm-none-eabi/lib/armv7-ar/thumb/fpu\libc.a(lib_a-__call_atexit.o)
                                                  c:/program files (x86)/kpit/gnuarm-nonev16.01-eabi/arm-none-eabi/arm-none-eabi/bin/../lib/gcc/arm-none-eabi/5.2-GNUARM-NONE_v16.01/../../../../arm-none-eabi/lib/armv7-ar/thumb/fpu\libc.a(lib_a-tzset_r.o)
fsnd_dtq                                          .\libkernel.a(dataqueue.o)
get_char                                          sample1n.o
get_char_raw                                      sample1n.o
get_inf                                           .\libkernel.a(task_manage.o)
get_ipm                                           .\libkernel.a(interrupt.o)
get_lod                                           .\libkernel.a(sys_manage.o)
get_mpf                                           .\libkernel.a(mempfix.o)
get_nth                                           .\libkernel.a(sys_manage.o)
get_pri                                           .\libkernel.a(task_manage.o)
                                                  sample1.o
get_tid                                           .\libkernel.a(sys_manage.o)
                                                  tcp_subr.o
                                                  tcp_output.o
                                                  ethernet.o
                                                  net_timer.o
                                                  sample1.o
get_tim                                           .\libkernel.a(time_manage.o)
                                                  .\libkernel.a(target_kernel_impl.o)
                                                  tcp_subr.o
                                                  in_subr.o
                                                  sample1.o
get_tst                                           .\libkernel.a(task_manage.o)
get_us_ticker_data                                us_ticker_api.o
gmtime_r                                          c:/program files (x86)/kpit/gnuarm-nonev16.01-eabi/arm-none-eabi/arm-none-eabi/bin/../lib/gcc/arm-none-eabi/5.2-GNUARM-NONE_v16.01/../../../../arm-none-eabi/lib/armv7-ar/thumb/fpu\libc.a(lib_a-gmtime_r.o)
                                                  c:/program files (x86)/kpit/gnuarm-nonev16.01-eabi/arm-none-eabi/arm-none-eabi/bin/../lib/gcc/arm-none-eabi/5.2-GNUARM-NONE_v16.01/../../../../arm-none-eabi/lib/armv7-ar/thumb/fpu\libc.a(lib_a-lcltime_r.o)
gpio_dir                                          gpio_api.o
                                                  gpio.o
gpio_init                                         gpio_api.o
                                                  gpio.o
gpio_init_in                                      gpio.o
gpio_init_in_ex                                   gpio.o
gpio_init_inout                                   gpio.o
gpio_init_out                                     gpio.o
                                                  board.o
gpio_init_out_ex                                  gpio.o
gpio_irq_disable                                  gpio_irq_api.o
gpio_irq_enable                                   gpio_irq_api.o
gpio_irq_free                                     gpio_irq_api.o
gpio_irq_init                                     gpio_irq_api.o
gpio_irq_set                                      gpio_irq_api.o
gpio_mode                                         gpio_api.o
                                                  gpio.o
gpio_multi_guard                                  pinmap.o
                                                  gpio_irq_api.o
gpio_set                                          gpio_api.o
                                                  port_api.o
gr_peach_set_led                                  .\libkernel.a(target_kernel_impl.o)
i2c_byte_read                                     i2c_api.o
i2c_byte_write                                    i2c_api.o
i2c_frequency                                     i2c_api.o
i2c_init                                          i2c_api.o
i2c_read                                          i2c_api.o
i2c_reset                                         i2c_api.o
i2c_slave_address                                 i2c_api.o
i2c_slave_mode                                    i2c_api.o
i2c_slave_read                                    i2c_api.o
i2c_slave_receive                                 i2c_api.o
i2c_slave_write                                   i2c_api.o
i2c_start                                         i2c_api.o
i2c_stop                                          i2c_api.o
i2c_write                                         i2c_api.o
if_mbed_eth_handler                               if_mbed.o
                                                  kernel_cfg.o
if_mbed_get_softc                                 if_mbed.o
                                                  tcp_subr.o
                                                  ethernet.o
                                                  if.o
if_mbed_init                                      if_mbed.o
                                                  ethernet.o
if_mbed_phy_task                                  if_mbed.o
                                                  kernel_cfg.o
if_mbed_probe                                     if_mbed.o
                                                  ethernet.o
if_mbed_read                                      if_mbed.o
                                                  ethernet.o
if_mbed_reset                                     if_mbed.o
                                                  ethernet.o
if_mbed_start                                     if_mbed.o
                                                  ethernet.o
if_mbed_watchdog                                  if_mbed.o
                                                  if.o
in4_add_ifaddr                                    in_subr.o
in4_add_route                                     in_subr.o
in4_get_ifaddr                                    in_subr.o
in_strtfn                                         in_subr.o
                                                  tcp_subr.o
ini_dtq                                           .\libkernel.a(dataqueue.o)
ini_flg                                           .\libkernel.a(eventflag.o)
ini_mpf                                           .\libkernel.a(mempfix.o)
ini_sem                                           .\libkernel.a(semaphore.o)
                                                  tSerialPortMain.o
initialise_monitor_handles                        c:/program files (x86)/kpit/gnuarm-nonev16.01-eabi/arm-none-eabi/arm-none-eabi/bin/../lib/gcc/arm-none-eabi/5.2-GNUARM-NONE_v16.01/../../../../arm-none-eabi/lib/armv7-ar/thumb/fpu\libc.a(lib_a-syscalls.o)
initialize_tecs                                   init_tecs.o
                                                  .\libkernel.a(startup.o)
intno1_isr                                        sample1.o
                                                  kernel_cfg.o
ip2str                                            in_subr.o
                                                  ip_icmp.o
                                                  ip_input.o
                                                  sample1n.o
iswspace                                          c:/program files (x86)/kpit/gnuarm-nonev16.01-eabi/arm-none-eabi/arm-none-eabi/bin/../lib/gcc/arm-none-eabi/5.2-GNUARM-NONE_v16.01/../../../../arm-none-eabi/lib/armv7-ar/thumb/fpu\libc.a(lib_a-iswspace.o)
                                                  c:/program files (x86)/kpit/gnuarm-nonev16.01-eabi/arm-none-eabi/arm-none-eabi/bin/../lib/gcc/arm-none-eabi/5.2-GNUARM-NONE_v16.01/../../../../arm-none-eabi/lib/armv7-ar/thumb/fpu\libc.a(lib_a-svfiscanf.o)
itron_strerror                                    strerror.o
                                                  net_buf.o
                                                  t_perror.o
                                                  sample1.o
loc_cpu                                           .\libkernel.a(sys_manage.o)
                                                  .\libkernel.a(time_manage.o)
                                                  tSerialPortMain.o
                                                  sample1.o
localeconv                                        c:/program files (x86)/kpit/gnuarm-nonev16.01-eabi/arm-none-eabi/arm-none-eabi/bin/../lib/gcc/arm-none-eabi/5.2-GNUARM-NONE_v16.01/../../../../arm-none-eabi/lib/armv7-ar/thumb/fpu\libc.a(lib_a-locale.o)
localtime                                         c:/program files (x86)/kpit/gnuarm-nonev16.01-eabi/arm-none-eabi/arm-none-eabi/bin/../lib/gcc/arm-none-eabi/5.2-GNUARM-NONE_v16.01/../../../../arm-none-eabi/lib/armv7-ar/thumb/fpu\libc.a(lib_a-lcltime.o)
                                                  rtc_api.o
localtime_r                                       c:/program files (x86)/kpit/gnuarm-nonev16.01-eabi/arm-none-eabi/arm-none-eabi/bin/../lib/gcc/arm-none-eabi/5.2-GNUARM-NONE_v16.01/../../../../arm-none-eabi/lib/armv7-ar/thumb/fpu\libc.a(lib_a-lcltime_r.o)
                                                  c:/program files (x86)/kpit/gnuarm-nonev16.01-eabi/arm-none-eabi/arm-none-eabi/bin/../lib/gcc/arm-none-eabi/5.2-GNUARM-NONE_v16.01/../../../../arm-none-eabi/lib/armv7-ar/thumb/fpu\libc.a(lib_a-lcltime.o)
mac2str                                           net_subr.o
                                                  if_ether.o
                                                  ethernet.o
main_task                                         sample1.o
                                                  kernel_cfg.o
malloc                                            c:/program files (x86)/kpit/gnuarm-nonev16.01-eabi/arm-none-eabi/arm-none-eabi/bin/../lib/gcc/arm-none-eabi/5.2-GNUARM-NONE_v16.01/../../../../arm-none-eabi/lib/armv7-ar/thumb/fpu\libc.a(lib_a-malloc.o)
mbed_assert_internal                              assert.o
                                                  spi_api.o
                                                  serial_api.o
                                                  pwmout_api.o
                                                  i2c_api.o
                                                  can_api.o
                                                  analogin_api.o
mbed_bus_init                                     tinet_target_config.o
mbed_die                                          board.o
mbed_inter_init                                   tinet_target_config.o
mbed_mac_address                                  mbed_interface.o
                                                  if_mbed.o
                                                  ethernet_api.o
mbrtowc                                           c:/program files (x86)/kpit/gnuarm-nonev16.01-eabi/arm-none-eabi/arm-none-eabi/bin/../lib/gcc/arm-none-eabi/5.2-GNUARM-NONE_v16.01/../../../../arm-none-eabi/lib/armv7-ar/thumb/fpu\libc.a(lib_a-mbrtowc.o)
memchr                                            c:/program files (x86)/kpit/gnuarm-nonev16.01-eabi/arm-none-eabi/arm-none-eabi/bin/../lib/gcc/arm-none-eabi/5.2-GNUARM-NONE_v16.01/../../../../arm-none-eabi/lib/armv7-ar/thumb/fpu\libc.a(lib_a-memchr-stub.o)
                                                  c:/program files (x86)/kpit/gnuarm-nonev16.01-eabi/arm-none-eabi/arm-none-eabi/bin/../lib/gcc/arm-none-eabi/5.2-GNUARM-NONE_v16.01/../../../../arm-none-eabi/lib/armv7-ar/thumb/fpu\libc.a(lib_a-fvwrite.o)
                                                  c:/program files (x86)/kpit/gnuarm-nonev16.01-eabi/arm-none-eabi/arm-none-eabi/bin/../lib/gcc/arm-none-eabi/5.2-GNUARM-NONE_v16.01/../../../../arm-none-eabi/lib/armv7-ar/thumb/fpu\libc.a(lib_a-vfiprintf.o)
                                                  c:/program files (x86)/kpit/gnuarm-nonev16.01-eabi/arm-none-eabi/arm-none-eabi/bin/../lib/gcc/arm-none-eabi/5.2-GNUARM-NONE_v16.01/../../../../arm-none-eabi/lib/armv7-ar/thumb/fpu\libc.a(lib_a-vfprintf.o)
memcmp                                            c:/program files (x86)/kpit/gnuarm-nonev16.01-eabi/arm-none-eabi/arm-none-eabi/bin/../lib/gcc/arm-none-eabi/5.2-GNUARM-NONE_v16.01/../../../../arm-none-eabi/lib/armv7-ar/thumb/fpu\libc.a(lib_a-memcmp.o)
                                                  if_ether.o
memcpy                                            c:/program files (x86)/kpit/gnuarm-nonev16.01-eabi/arm-none-eabi/arm-none-eabi/bin/../lib/gcc/arm-none-eabi/5.2-GNUARM-NONE_v16.01/../../../../arm-none-eabi/lib/armv7-ar/thumb/fpu\libc.a(lib_a-memcpy-stub.o)
                                                  c:/program files (x86)/kpit/gnuarm-nonev16.01-eabi/arm-none-eabi/arm-none-eabi/bin/../lib/gcc/arm-none-eabi/5.2-GNUARM-NONE_v16.01/../../../../arm-none-eabi/lib/armv7-ar/thumb/fpu\libc.a(lib_a-fvwrite.o)
                                                  c:/program files (x86)/kpit/gnuarm-nonev16.01-eabi/arm-none-eabi/arm-none-eabi/bin/../lib/gcc/arm-none-eabi/5.2-GNUARM-NONE_v16.01/../../../../arm-none-eabi/lib/armv7-ar/thumb/fpu\libc.a(lib_a-ungetc.o)
                                                  c:/program files (x86)/kpit/gnuarm-nonev16.01-eabi/arm-none-eabi/arm-none-eabi/bin/../lib/gcc/arm-none-eabi/5.2-GNUARM-NONE_v16.01/../../../../arm-none-eabi/lib/armv7-ar/thumb/fpu\libc.a(lib_a-svfiscanf.o)
                                                  c:/program files (x86)/kpit/gnuarm-nonev16.01-eabi/arm-none-eabi/arm-none-eabi/bin/../lib/gcc/arm-none-eabi/5.2-GNUARM-NONE_v16.01/../../../../arm-none-eabi/lib/armv7-ar/thumb/fpu\libc.a(lib_a-mprec.o)
                                                  c:/program files (x86)/kpit/gnuarm-nonev16.01-eabi/arm-none-eabi/arm-none-eabi/bin/../lib/gcc/arm-none-eabi/5.2-GNUARM-NONE_v16.01/../../../../arm-none-eabi/lib/armv7-ar/thumb/fpu\libc.a(lib_a-dtoa.o)
                                                  tcp_subr_ncs.o
                                                  tcp_subr.o
                                                  tcp_input.o
                                                  if_ether.o
                                                  ethernet.o
                                                  ip_icmp.o
                                                  ip_output.o
                                                  ip_input.o
                                                  serial_api.o
                                                  ethernet_api.o
                                                  can_api.o
memmove                                           c:/program files (x86)/kpit/gnuarm-nonev16.01-eabi/arm-none-eabi/arm-none-eabi/bin/../lib/gcc/arm-none-eabi/5.2-GNUARM-NONE_v16.01/../../../../arm-none-eabi/lib/armv7-ar/thumb/fpu\libc.a(lib_a-memmove.o)
                                                  c:/program files (x86)/kpit/gnuarm-nonev16.01-eabi/arm-none-eabi/arm-none-eabi/bin/../lib/gcc/arm-none-eabi/5.2-GNUARM-NONE_v16.01/../../../../arm-none-eabi/lib/armv7-ar/thumb/fpu\libc.a(lib_a-reallocr.o)
                                                  c:/program files (x86)/kpit/gnuarm-nonev16.01-eabi/arm-none-eabi/arm-none-eabi/bin/../lib/gcc/arm-none-eabi/5.2-GNUARM-NONE_v16.01/../../../../arm-none-eabi/lib/armv7-ar/thumb/fpu\libc.a(lib_a-fvwrite.o)
                                                  ip_input.o
memset                                            c:/program files (x86)/kpit/gnuarm-nonev16.01-eabi/arm-none-eabi/arm-none-eabi/bin/../lib/gcc/arm-none-eabi/5.2-GNUARM-NONE_v16.01/../../../../arm-none-eabi/lib/armv7-ar/thumb/fpu\libc.a(lib_a-memset.o)
                                                  c:/program files (x86)/kpit/gnuarm-nonev16.01-eabi/arm-none-eabi/arm-none-eabi/bin/../lib/gcc/arm-none-eabi/5.2-GNUARM-NONE_v16.01/../../../../arm-none-eabi/lib/armv7-ar/thumb/fpu\libc.a(lib_a-callocr.o)
                                                  c:/program files (x86)/kpit/gnuarm-nonev16.01-eabi/arm-none-eabi/arm-none-eabi/bin/../lib/gcc/arm-none-eabi/5.2-GNUARM-NONE_v16.01/../../../../arm-none-eabi/lib/armv7-ar/thumb/fpu\libc.a(lib_a-svfiscanf.o)
                                                  c:/program files (x86)/kpit/gnuarm-nonev16.01-eabi/arm-none-eabi/arm-none-eabi/bin/../lib/gcc/arm-none-eabi/5.2-GNUARM-NONE_v16.01/../../../../arm-none-eabi/lib/armv7-ar/thumb/fpu\libc.a(lib_a-findfp.o)
                                                  c:/program files (x86)/kpit/gnuarm-nonev16.01-eabi/arm-none-eabi/arm-none-eabi/bin/../lib/gcc/arm-none-eabi/5.2-GNUARM-NONE_v16.01/../../../../arm-none-eabi/lib/armv7-ar/thumb/fpu\libc.a(lib_a-syscalls.o)
                                                  tcp_subr.o
                                                  if_ether.o
                                                  ip_icmp.o
                                                  ip_input.o
                                                  in_subr.o
                                                  ethernet_api.o
message                                           sample1.o
mktime                                            c:/program files (x86)/kpit/gnuarm-nonev16.01-eabi/arm-none-eabi/arm-none-eabi/bin/../lib/gcc/arm-none-eabi/5.2-GNUARM-NONE_v16.01/../../../../arm-none-eabi/lib/armv7-ar/thumb/fpu\libc.a(lib_a-mktime.o)
                                                  rtc_api.o
net_count_arp                                     net_count.o
                                                  if_ether.o
net_count_ether                                   net_count.o
                                                  ethernet.o
net_count_ether_nic                               net_count.o
                                                  if_mbed.o
net_count_icmp4                                   net_count.o
                                                  ip_icmp.o
net_count_ip4                                     net_count.o
                                                  if_ether.o
                                                  ip_output.o
                                                  ip_input.o
net_count_tcp                                     net_count.o
                                                  tcp_subr_ncs.o
                                                  tcp_subr.o
                                                  tcp_output.o
                                                  tcp_input.o
net_ioctl                                         sample1n.o
net_serial_ctl_por                                sample1n.o
                                                  sample1.o
net_serial_rea_dat                                sample1n.o
                                                  sample1.o
net_syslog                                        sample1n.o
                                                  sample1.o
net_timer_handler                                 net_timer.o
                                                  kernel_cfg.o
net_timer_task                                    net_timer.o
                                                  kernel_cfg.o
pget_mpf                                          .\libkernel.a(mempfix.o)
pin_function                                      pinmap.o
                                                  gpio_api.o
                                                  pinmap_common.o
pin_mode                                          pinmap.o
                                                  port_api.o
                                                  pinmap_common.o
pinmap_find_function                              pinmap_common.o
pinmap_find_peripheral                            pinmap_common.o
pinmap_function                                   pinmap_common.o
pinmap_merge                                      pinmap_common.o
                                                  spi_api.o
                                                  serial_api.o
                                                  i2c_api.o
                                                  can_api.o
pinmap_peripheral                                 pinmap_common.o
                                                  spi_api.o
                                                  serial_api.o
                                                  pwmout_api.o
                                                  i2c_api.o
                                                  gpio_irq_api.o
                                                  can_api.o
                                                  analogin_api.o
pinmap_pinout                                     pinmap_common.o
                                                  spi_api.o
                                                  serial_api.o
                                                  pwmout_api.o
                                                  i2c_api.o
                                                  gpio_irq_api.o
                                                  can_api.o
                                                  analogin_api.o
pol_flg                                           .\libkernel.a(eventflag.o)
pol_sem                                           .\libkernel.a(semaphore.o)
port_dir                                          port_api.o
port_init                                         port_api.o
port_mode                                         port_api.o
port_pin                                          port_api.o
port_read                                         port_api.o
port_write                                        port_api.o
prcv_dtq                                          .\libkernel.a(dataqueue.o)
psnd_dtq                                          .\libkernel.a(dataqueue.o)
put_char                                          sample1n.o
put_num                                           sample1n.o
pwmout_free                                       pwmout_api.o
pwmout_init                                       pwmout_api.o
pwmout_period                                     pwmout_api.o
pwmout_period_ms                                  pwmout_api.o
pwmout_period_us                                  pwmout_api.o
pwmout_pulsewidth                                 pwmout_api.o
pwmout_pulsewidth_ms                              pwmout_api.o
pwmout_pulsewidth_us                              pwmout_api.o
pwmout_read                                       pwmout_api.o
pwmout_write                                      pwmout_api.o
ras_ter                                           .\libkernel.a(task_term.o)
                                                  sample1.o
rcv_buff                                          sample1n.o
rcv_dtq                                           .\libkernel.a(dataqueue.o)
                                                  ethernet.o
rcv_len                                           sample1n.o
rcv_off                                           sample1n.o
ref_alm                                           .\libkernel.a(alarm.o)
ref_cyc                                           .\libkernel.a(cyclic.o)
ref_dtq                                           .\libkernel.a(dataqueue.o)
ref_flg                                           .\libkernel.a(eventflag.o)
ref_mpf                                           .\libkernel.a(mempfix.o)
ref_sem                                           .\libkernel.a(semaphore.o)
rel_mpf                                           .\libkernel.a(mempfix.o)
                                                  net_buf.o
rel_wai                                           .\libkernel.a(task_sync.o)
                                                  tcp_usrreq.o
                                                  sample1.o
rot_rdq                                           .\libkernel.a(sys_manage.o)
                                                  sample1.o
rsm_tsk                                           .\libkernel.a(task_sync.o)
                                                  sample1.o
rtc_free                                          rtc_api.o
rtc_init                                          rtc_api.o
                                                  rtc_time.o
rtc_isenabled                                     rtc_api.o
                                                  rtc_time.o
rtc_read                                          rtc_api.o
                                                  rtc_time.o
rtc_write                                         rtc_api.o
                                                  rtc_time.o
seen_id0_active                                   system_MBRZA1H.o
serial_baud                                       serial_api.o
serial_break_clear                                serial_api.o
serial_break_set                                  serial_api.o
serial_clear                                      serial_api.o
serial_cls_por                                    tSerialAdapter.o
serial_ctl_por                                    tSerialAdapter.o
                                                  sample1n.o
serial_format                                     serial_api.o
serial_free                                       serial_api.o
serial_getc                                       serial_api.o
serial_init                                       serial_api.o
serial_irq_handler                                serial_api.o
serial_irq_set                                    serial_api.o
serial_opn_por                                    tSerialAdapter.o
                                                  sample1.o
serial_pinout_tx                                  serial_api.o
serial_putc                                       serial_api.o
serial_rea_dat                                    tSerialAdapter.o
                                                  sample1n.o
serial_readable                                   serial_api.o
serial_ref_por                                    tSerialAdapter.o
                                                  sample1n.o
serial_set_flow_control                           serial_api.o
serial_wri_dat                                    tSerialAdapter.o
serial_writable                                   serial_api.o
set_flg                                           .\libkernel.a(eventflag.o)
                                                  .\libkernel.a(time_manage.o)
                                                  tcp_usrreq.o
                                                  tcp_subr_ncs.o
                                                  tcp_subr.o
                                                  tcp_input.o
set_tim                                           .\libkernel.a(time_manage.o)
set_time                                          rtc_time.o
setlocale                                         c:/program files (x86)/kpit/gnuarm-nonev16.01-eabi/arm-none-eabi/arm-none-eabi/bin/../lib/gcc/arm-none-eabi/5.2-GNUARM-NONE_v16.01/../../../../arm-none-eabi/lib/armv7-ar/thumb/fpu\libc.a(lib_a-locale.o)
sig_sem                                           .\libkernel.a(semaphore.o)
                                                  .\libkernel.a(time_manage.o)
                                                  tcp_usrreq.o
                                                  tcp_subr_ncs.o
                                                  tcp_subr.o
                                                  tcp_timer.o
                                                  tcp_input.o
                                                  if_mbed.o
                                                  if_ether.o
                                                  ethernet.o
                                                  ip_input.o
                                                  in_subr.o
                                                  net_timer.o
                                                  net_subr.o
                                                  tSerialPortMain.o
                                                  sample1n.o
sil_dly_nse                                       .\libkernel.a(core_support.o)
siscanf                                           c:/program files (x86)/kpit/gnuarm-nonev16.01-eabi/arm-none-eabi/arm-none-eabi/bin/../lib/gcc/arm-none-eabi/5.2-GNUARM-NONE_v16.01/../../../../arm-none-eabi/lib/armv7-ar/thumb/fpu\libc.a(lib_a-siscanf.o)
                                                  c:/program files (x86)/kpit/gnuarm-nonev16.01-eabi/arm-none-eabi/arm-none-eabi/bin/../lib/gcc/arm-none-eabi/5.2-GNUARM-NONE_v16.01/../../../../arm-none-eabi/lib/armv7-ar/thumb/fpu\libc.a(lib_a-tzset_r.o)
slp_tsk                                           .\libkernel.a(task_sync.o)
                                                  sample1.o
snd_buff                                          sample1n.o
snd_dtq                                           .\libkernel.a(dataqueue.o)
                                                  .\libkernel.a(time_manage.o)
snd_len                                           sample1n.o
snd_off                                           sample1n.o
sns_ctx                                           .\libkernel.a(sys_manage.o)
                                                  sample1.o
sns_dpn                                           .\libkernel.a(sys_manage.o)
                                                  tLogTaskMain.o
                                                  tSerialAdapter.o
                                                  tSerialPortMain.o
                                                  sample1.o
sns_dsp                                           .\libkernel.a(sys_manage.o)
                                                  sample1.o
sns_ker                                           .\libkernel.a(sys_manage.o)
sns_loc                                           .\libkernel.a(sys_manage.o)
                                                  sample1.o
sns_ter                                           .\libkernel.a(task_term.o)
software_term_hook                                .\libkernel.a(chip_kernel_impl.o)
spi_busy                                          spi_api.o
spi_format                                        spi_api.o
spi_free                                          spi_api.o
spi_frequency                                     spi_api.o
spi_init                                          spi_api.o
spi_master_write                                  spi_api.o
spi_slave_read                                    spi_api.o
spi_slave_receive                                 spi_api.o
spi_slave_write                                   spi_api.o
sta_alm                                           .\libkernel.a(alarm.o)
                                                  sample1.o
sta_cyc                                           .\libkernel.a(cyclic.o)
                                                  sample1.o
sta_ker                                           .\libkernel.a(startup.o)
                                                  startup_RZ1AH.o
stdio_uart                                        serial_api.o
stdio_uart_inited                                 serial_api.o
stp_alm                                           .\libkernel.a(alarm.o)
                                                  sample1.o
stp_cyc                                           .\libkernel.a(cyclic.o)
                                                  sample1.o
strcmp                                            c:/program files (x86)/kpit/gnuarm-nonev16.01-eabi/arm-none-eabi/arm-none-eabi/bin/../lib/gcc/arm-none-eabi/5.2-GNUARM-NONE_v16.01/../../../../arm-none-eabi/lib/armv7-ar/thumb/fpu\libc.a(lib_a-strcmp.o)
                                                  c:/program files (x86)/kpit/gnuarm-nonev16.01-eabi/arm-none-eabi/arm-none-eabi/bin/../lib/gcc/arm-none-eabi/5.2-GNUARM-NONE_v16.01/../../../../arm-none-eabi/lib/armv7-ar/thumb/fpu\libc.a(lib_a-locale.o)
                                                  c:/program files (x86)/kpit/gnuarm-nonev16.01-eabi/arm-none-eabi/arm-none-eabi/bin/../lib/gcc/arm-none-eabi/5.2-GNUARM-NONE_v16.01/../../../../arm-none-eabi/lib/armv7-ar/thumb/fpu\libc.a(lib_a-tzset_r.o)
strcpy                                            c:/program files (x86)/kpit/gnuarm-nonev16.01-eabi/arm-none-eabi/arm-none-eabi/bin/../lib/gcc/arm-none-eabi/5.2-GNUARM-NONE_v16.01/../../../../arm-none-eabi/lib/armv7-ar/thumb/fpu\libc.a(lib_a-strcpy.o)
                                                  c:/program files (x86)/kpit/gnuarm-nonev16.01-eabi/arm-none-eabi/arm-none-eabi/bin/../lib/gcc/arm-none-eabi/5.2-GNUARM-NONE_v16.01/../../../../arm-none-eabi/lib/armv7-ar/thumb/fpu\libc.a(lib_a-tzset_r.o)
strlen                                            c:/program files (x86)/kpit/gnuarm-nonev16.01-eabi/arm-none-eabi/arm-none-eabi/bin/../lib/gcc/arm-none-eabi/5.2-GNUARM-NONE_v16.01/../../../../arm-none-eabi/lib/armv7-ar/thumb/fpu\libc.a(lib_a-strlen.o)
                                                  c:/program files (x86)/kpit/gnuarm-nonev16.01-eabi/arm-none-eabi/arm-none-eabi/bin/../lib/gcc/arm-none-eabi/5.2-GNUARM-NONE_v16.01/../../../../arm-none-eabi/lib/armv7-ar/thumb/fpu\libc.a(lib_a-vfiprintf.o)
                                                  c:/program files (x86)/kpit/gnuarm-nonev16.01-eabi/arm-none-eabi/arm-none-eabi/bin/../lib/gcc/arm-none-eabi/5.2-GNUARM-NONE_v16.01/../../../../arm-none-eabi/lib/armv7-ar/thumb/fpu\libc.a(lib_a-siscanf.o)
                                                  c:/program files (x86)/kpit/gnuarm-nonev16.01-eabi/arm-none-eabi/arm-none-eabi/bin/../lib/gcc/arm-none-eabi/5.2-GNUARM-NONE_v16.01/../../../../arm-none-eabi/lib/armv7-ar/thumb/fpu\libc.a(lib_a-vfprintf.o)
                                                  c:/program files (x86)/kpit/gnuarm-nonev16.01-eabi/arm-none-eabi/arm-none-eabi/bin/../lib/gcc/arm-none-eabi/5.2-GNUARM-NONE_v16.01/../../../../arm-none-eabi/lib/armv7-ar/thumb/fpu\libc.a(lib_a-tzset_r.o)
                                                  c:/program files (x86)/kpit/gnuarm-nonev16.01-eabi/arm-none-eabi/arm-none-eabi/bin/../lib/gcc/arm-none-eabi/5.2-GNUARM-NONE_v16.01/../../../../arm-none-eabi/lib/armv7-ar/thumb/fpu\libc.a(lib_a-syscalls.o)
strncmp                                           c:/program files (x86)/kpit/gnuarm-nonev16.01-eabi/arm-none-eabi/arm-none-eabi/bin/../lib/gcc/arm-none-eabi/5.2-GNUARM-NONE_v16.01/../../../../arm-none-eabi/lib/armv7-ar/thumb/fpu\libc.a(lib_a-strncmp.o)
                                                  c:/program files (x86)/kpit/gnuarm-nonev16.01-eabi/arm-none-eabi/arm-none-eabi/bin/../lib/gcc/arm-none-eabi/5.2-GNUARM-NONE_v16.01/../../../../arm-none-eabi/lib/armv7-ar/thumb/fpu\libc.a(lib_a-getenv_r.o)
strtol                                            c:/program files (x86)/kpit/gnuarm-nonev16.01-eabi/arm-none-eabi/arm-none-eabi/bin/../lib/gcc/arm-none-eabi/5.2-GNUARM-NONE_v16.01/../../../../arm-none-eabi/lib/armv7-ar/thumb/fpu\libc.a(lib_a-strtol.o)
strtoul                                           c:/program files (x86)/kpit/gnuarm-nonev16.01-eabi/arm-none-eabi/arm-none-eabi/bin/../lib/gcc/arm-none-eabi/5.2-GNUARM-NONE_v16.01/../../../../arm-none-eabi/lib/armv7-ar/thumb/fpu\libc.a(lib_a-strtoul.o)
                                                  c:/program files (x86)/kpit/gnuarm-nonev16.01-eabi/arm-none-eabi/arm-none-eabi/bin/../lib/gcc/arm-none-eabi/5.2-GNUARM-NONE_v16.01/../../../../arm-none-eabi/lib/armv7-ar/thumb/fpu\libc.a(lib_a-tzset_r.o)
sus_tsk                                           .\libkernel.a(task_sync.o)
                                                  sample1.o
syslog                                            vasyslog.o
                                                  tcp_subr_ncs.o
                                                  tcp_subr.o
                                                  tcp_output.o
                                                  tcp_input.o
                                                  if_ether.o
                                                  ethernet.o
                                                  ip_icmp.o
                                                  ip_input.o
                                                  net_timer.o
                                                  net_buf.o
                                                  sample1n.o
syslog_fls_log                                    tSysLogAdapter.o
syslog_lostmsg                                    log_output.o
                                                  tLogTaskMain.o
                                                  tSysLog.o
syslog_msk_log                                    tSysLogAdapter.o
                                                  sample1.o
syslog_print                                      log_output.o
                                                  tLogTaskMain.o
                                                  tSysLog.o
syslog_printf                                     log_output.o
                                                  tLogTaskMain.o
syslog_rea_log                                    tSysLogAdapter.o
syslog_ref_log                                    tSysLogAdapter.o
syslog_wri_log                                    tSysLogAdapter.o
                                                  sample1n.o
tBannerMain_SINGLE_CELL_INIB                      tBannerMain_tecsgen.o
                                                  tBannerMain.o
tBannerMain_eBannerInitialize_main                tBannerMain.o
                                                  tInitializeRoutine.o
tISR_INIB_tab                                     tISR_tecsgen.o
                                                  kernel_cfg.o
tISR_start                                        tISR.o
                                                  kernel_cfg.o
tInitializeRoutine_start                          tInitializeRoutine.o
                                                  kernel_cfg.o
tInterruptRequest_INIB_tab                        tInterruptRequest_tecsgen.o
                                                  tPutLogGRPeach.o
                                                  tSerialPortMain.o
tLogTaskMain_SINGLE_CELL_INIB                     tLogTaskMain_tecsgen.o
                                                  tLogTaskMain.o
tLogTaskMain_eLogTaskBody_main                    tLogTaskMain.o
                                                  tTask.o
tLogTaskMain_eLogTaskTerminate_main               tLogTaskMain.o
                                                  tTerminateRoutine.o
tLogTaskMain_eLogTask_flush                       tLogTaskMain.o
tPutLogGRPeach_ePutLog_putChar                    tPutLogGRPeach.o
                                                  tLogTaskMain.o
                                                  tSysLog.o
tPutLogGRPeach_initialize                         tPutLogGRPeach.o
                                                  .\libkernel.a(target_kernel_impl.o)
tSCIF_CB_initialize                               tSCIF_tecsgen.o
                                                  init_tecs.o
tSCIF_CB_tab                                      tSCIF_tecsgen.o
                                                  tPutLogGRPeach.o
                                                  tSerialPortMain.o
tSCIF_INIB_tab                                    tSCIF_tecsgen.o
tSCIF_eSIOPort_close                              tSCIF.o
                                                  tSerialPortMain.o
tSCIF_eSIOPort_disableCBR                         tSCIF.o
                                                  tSerialPortMain.o
tSCIF_eSIOPort_enableCBR                          tSCIF.o
                                                  tSerialPortMain.o
tSCIF_eSIOPort_getChar                            tSCIF.o
                                                  tSerialPortMain.o
tSCIF_eSIOPort_open                               tSCIF.o
                                                  tPutLogGRPeach.o
                                                  tSerialPortMain.o
tSCIF_eSIOPort_putChar                            tSCIF.o
                                                  tPutLogGRPeach.o
                                                  tSerialPortMain.o
tSCIF_eiRxISR_MT_                                 tSCIF_tecsgen.o
tSCIF_eiRxISR_main                                tSCIF.o
                                                  tSCIF_tecsgen.o
tSCIF_eiRxISR_main_skel                           tSCIF_tecsgen.o
tSCIF_eiTxISR_MT_                                 tSCIF_tecsgen.o
tSCIF_eiTxISR_main                                tSCIF.o
                                                  tSCIF_tecsgen.o
tSCIF_eiTxISR_main_skel                           tSCIF_tecsgen.o
tSemaphore_INIB_tab                               tSemaphore_tecsgen.o
                                                  tSerialPortMain.o
tSerialAdapter_SINGLE_CELL_INIB                   tSerialAdapter_tecsgen.o
                                                  tSerialAdapter.o
tSerialPortMain_CB_initialize                     tSerialPortMain_tecsgen.o
                                                  init_tecs.o
tSerialPortMain_CB_tab                            tSerialPortMain_tecsgen.o
                                                  tSCIF.o
                                                  tLogTaskMain.o
tSerialPortMain_INIB_tab                          tSerialPortMain_tecsgen.o
tSerialPortMain_SerialPort1_SerialPortMain_CB_receiveBuffer_INIT tSerialPortMain_tecsgen.o
tSerialPortMain_SerialPort1_SerialPortMain_CB_sendBuffer_INIT tSerialPortMain_tecsgen.o
tSerialPortMain_eSerialPort_MT_                   tSerialPortMain_tecsgen.o
tSerialPortMain_eSerialPort_close                 tSerialPortMain.o
                                                  tSerialPortMain_tecsgen.o
tSerialPortMain_eSerialPort_close_skel            tSerialPortMain_tecsgen.o
tSerialPortMain_eSerialPort_control               tSerialPortMain.o
                                                  tSerialPortMain_tecsgen.o
tSerialPortMain_eSerialPort_control_skel          tSerialPortMain_tecsgen.o
tSerialPortMain_eSerialPort_open                  tSerialPortMain.o
                                                  tLogTaskMain.o
                                                  tSerialPortMain_tecsgen.o
tSerialPortMain_eSerialPort_open_skel             tSerialPortMain_tecsgen.o
tSerialPortMain_eSerialPort_read                  tSerialPortMain.o
                                                  tSerialPortMain_tecsgen.o
tSerialPortMain_eSerialPort_read_skel             tSerialPortMain_tecsgen.o
tSerialPortMain_eSerialPort_refer                 tSerialPortMain.o
                                                  tLogTaskMain.o
                                                  tSerialPortMain_tecsgen.o
tSerialPortMain_eSerialPort_refer_skel            tSerialPortMain_tecsgen.o
tSerialPortMain_eSerialPort_write                 tSerialPortMain.o
                                                  tLogTaskMain.o
                                                  tSerialPortMain_tecsgen.o
tSerialPortMain_eSerialPort_write_skel            tSerialPortMain_tecsgen.o
tSerialPortMain_eiSIOCBR_readyReceive             tSerialPortMain.o
                                                  tSCIF.o
tSerialPortMain_eiSIOCBR_readySend                tSerialPortMain.o
                                                  tSCIF.o
tSerialPortMain_enSerialPortManage_getChar        tSerialPortMain.o
                                                  tLogTaskMain.o
tSysLog_CB_initialize                             tSysLog_tecsgen.o
                                                  init_tecs.o
tSysLog_SINGLE_CELL_CB                            tSysLog_tecsgen.o
                                                  tSysLog.o
tSysLog_SINGLE_CELL_CB_logBuffer_INIT             tSysLog_tecsgen.o
tSysLog_SINGLE_CELL_INIB                          tSysLog_tecsgen.o
                                                  tSysLog.o
tSysLog_eSysLog_flush                             tSysLog.o
                                                  tSysLogAdapter.o
tSysLog_eSysLog_mask                              tSysLog.o
                                                  tSysLogAdapter.o
tSysLog_eSysLog_read                              tSysLog.o
                                                  tLogTaskMain.o
                                                  tSysLogAdapter.o
tSysLog_eSysLog_refer                             tSysLog.o
                                                  tLogTaskMain.o
                                                  tSysLogAdapter.o
tSysLog_eSysLog_write                             tSysLog.o
                                                  .\libkernel.a(wait.o)
                                                  .\libkernel.a(interrupt.o)
                                                  .\libkernel.a(alarm.o)
                                                  .\libkernel.a(cyclic.o)
                                                  .\libkernel.a(mempfix.o)
                                                  .\libkernel.a(dataqueue.o)
                                                  .\libkernel.a(eventflag.o)
                                                  .\libkernel.a(semaphore.o)
                                                  .\libkernel.a(task_sync.o)
                                                  .\libkernel.a(task_manage.o)
                                                  .\libkernel.a(time_event.o)
                                                  .\libkernel.a(task.o)
                                                  .\libkernel.a(core_kernel_impl.o)
                                                  .\libkernel.a(chip_kernel_impl.o)
                                                  tSCIF.o
                                                  tBannerMain.o
                                                  tLogTaskMain.o
                                                  tSysLogAdapter.o
                                                  t_perror.o
                                                  vasyslog.o
                                                  sample1.o
tTask_INIB_tab                                    tTask_tecsgen.o
                                                  kernel_cfg.o
tTask_start                                       tTask.o
                                                  kernel_cfg.o
tTerminateRoutine_start                           tTerminateRoutine.o
                                                  kernel_cfg.o
t_perror                                          t_perror.o
                                                  sample1.o
task                                              sample1.o
                                                  kernel_cfg.o
task_loop                                         sample1.o
tcp_acp_cep                                       tcp_usrreq.o
                                                  sample1n.o
tcp_can_cep                                       tcp_usrreq.o
tcp_cls_cep                                       tcp_usrreq.o
                                                  sample1n.o
tcp_con_cep                                       tcp_usrreq.o
tcp_get_buf                                       tcp_usrreq.o
                                                  sample1n.o
tcp_output_task                                   tcp_output.o
                                                  kernel_cfg.o
tcp_rcv_buf                                       tcp_usrreq.o
                                                  sample1n.o
tcp_rcv_dat                                       tcp_usrreq.o
tcp_rel_buf                                       tcp_usrreq.o
                                                  sample1n.o
tcp_rwbuf                                         sample1n.o
                                                  tinet_cfg.o
tcp_sht_cep                                       tcp_usrreq.o
                                                  sample1n.o
tcp_snd_buf                                       tcp_usrreq.o
                                                  sample1n.o
tcp_snd_dat                                       tcp_usrreq.o
tcp_swbuf                                         sample1n.o
                                                  tinet_cfg.o
ter_tsk                                           .\libkernel.a(task_term.o)
                                                  sample1.o
tget_mpf                                          .\libkernel.a(mempfix.o)
                                                  net_buf.o
ticker_get_next_timestamp                         ticker_api.o
ticker_insert_event                               ticker_api.o
ticker_irq_handler                                ticker_api.o
                                                  us_ticker_api.o
ticker_read                                       ticker_api.o
ticker_remove_event                               ticker_api.o
ticker_set_handler                                ticker_api.o
time                                              rtc_time.o
trcv_dtq                                          .\libkernel.a(dataqueue.o)
tslp_tsk                                          .\libkernel.a(task_sync.o)
                                                  sample1.o
tsnd_dtq                                          .\libkernel.a(dataqueue.o)
                                                  ethernet.o
twai_flg                                          .\libkernel.a(eventflag.o)
                                                  tcp_usrreq.o
                                                  tcp_subr_ncs.o
                                                  tcp_subr.o
twai_sem                                          .\libkernel.a(semaphore.o)
tzset                                             c:/program files (x86)/kpit/gnuarm-nonev16.01-eabi/arm-none-eabi/arm-none-eabi/bin/../lib/gcc/arm-none-eabi/5.2-GNUARM-NONE_v16.01/../../../../arm-none-eabi/lib/armv7-ar/thumb/fpu\libc.a(lib_a-tzset.o)
ungetc                                            c:/program files (x86)/kpit/gnuarm-nonev16.01-eabi/arm-none-eabi/arm-none-eabi/bin/../lib/gcc/arm-none-eabi/5.2-GNUARM-NONE_v16.01/../../../../arm-none-eabi/lib/armv7-ar/thumb/fpu\libc.a(lib_a-ungetc.o)
unl_cpu                                           .\libkernel.a(sys_manage.o)
                                                  .\libkernel.a(time_manage.o)
                                                  tSerialPortMain.o
                                                  sample1.o
us_ticker_clear_interrupt                         .\libkernel.a(target_kernel_impl.o)
                                                  us_ticker_api.o
us_ticker_disable_interrupt                       .\libkernel.a(target_kernel_impl.o)
                                                  us_ticker_api.o
us_ticker_init                                    .\libkernel.a(target_kernel_impl.o)
                                                  us_ticker_api.o
us_ticker_irq_handler                             us_ticker_api.o
us_ticker_read                                    .\libkernel.a(target_kernel_impl.o)
                                                  us_ticker_api.o
                                                  rtc_time.o
us_ticker_set_interrupt                           .\libkernel.a(target_kernel_impl.o)
                                                  us_ticker_api.o
vector_ref_table                                  .\libkernel.a(core_support.o)
vector_table                                      .\libkernel.a(core_support.o)
vfiprintf                                         c:/program files (x86)/kpit/gnuarm-nonev16.01-eabi/arm-none-eabi/arm-none-eabi/bin/../lib/gcc/arm-none-eabi/5.2-GNUARM-NONE_v16.01/../../../../arm-none-eabi/lib/armv7-ar/thumb/fpu\libc.a(lib_a-vfiprintf.o)
vfprintf                                          c:/program files (x86)/kpit/gnuarm-nonev16.01-eabi/arm-none-eabi/arm-none-eabi/bin/../lib/gcc/arm-none-eabi/5.2-GNUARM-NONE_v16.01/../../../../arm-none-eabi/lib/armv7-ar/thumb/fpu\libc.a(lib_a-vfprintf.o)
                                                  error.o
wai_flg                                           .\libkernel.a(eventflag.o)
wai_sem                                           .\libkernel.a(semaphore.o)
                                                  tcp_usrreq.o
                                                  tcp_subr_ncs.o
                                                  tcp_subr.o
                                                  tcp_output.o
                                                  tcp_input.o
                                                  if_ether.o
                                                  ethernet.o
                                                  ip_input.o
                                                  in_subr.o
                                                  net_timer.o
                                                  net_subr.o
                                                  tSerialPortMain.o
                                                  sample1n.o
wait                                              .\libkernel.a(target_kernel_impl.o)
wait_accept                                       sample1n.o
wait_ms                                           .\libkernel.a(target_kernel_impl.o)
                                                  board.o
wait_us                                           .\libkernel.a(target_kernel_impl.o)
wcrtomb                                           c:/program files (x86)/kpit/gnuarm-nonev16.01-eabi/arm-none-eabi/arm-none-eabi/bin/../lib/gcc/arm-none-eabi/5.2-GNUARM-NONE_v16.01/../../../../arm-none-eabi/lib/armv7-ar/thumb/fpu\libc.a(lib_a-wcrtomb.o)
wup_tsk                                           .\libkernel.a(task_sync.o)
                                                  .\libkernel.a(time_manage.o)
                                                  sample1.o
xsns_dpn                                          .\libkernel.a(exception.o)
                                                  sample1.o
